(dp0
S'represent'
p1
I524
sS'all'
p2
I92
sS'code'
p3
I610
sS'duplicates'
p4
I182
sS'declaration'
p5
I745
sS'dynamic'
p6
I204
sS'results'
p7
I224
sS'produce'
p8
I685
sS'existing'
p9
I187
sS'prefix'
p10
I525
sS'/'
p11
I66
sS'query'
p12
I13
sS'row'
p13
I75
sS'calculate'
p14
I57
sS'zone'
p15
I367
sS'failed'
p16
I701
sS'white'
p17
I453
sS'vs'
p18
I673
sS'send'
p19
I746
sS'to'
p20
I10
sS'program'
p21
I686
sS'@'
p22
I647
sS'rollback'
p23
I649
sS'string'
p24
I47
sS'returning'
p25
I540
sS'vba'
p26
I672
sS'splitting'
p27
I436
sS'cypher'
p28
I803
sS'updates'
p29
I491
sS'underscore'
p30
I541
sS'entries'
p31
I563
sS'join'
p32
I60
sS'difference'
p33
I33
sS'exact'
p34
I409
sS'condition'
p35
I94
sS'treating'
p36
I575
sS'blob'
p37
I727
sS'level'
p38
I418
sS'issue'
p39
I775
sS'button'
p40
I492
sS'list'
p41
I83
sS'scalar'
p42
I652
sS'cascading'
p43
I648
sS'enforce'
p44
I694
sS'mm'
p45
I423
sS'math'
p46
I653
sS'listview'
p47
I748
sS'round'
p48
I267
sS'system'
p49
I499
sS'prevent'
p50
I654
sS'occurrence'
p51
I368
sS'dealing'
p52
I576
sS'batch'
p53
I485
sS'today'
p54
I643
sS'design'
p55
I135
sS'pass'
p56
I207
sS'substitute'
p57
I750
sS'will'
p58
I457
sS'what'
p59
I31
sS'hide'
p60
I751
sS'randomise'
p61
I752
sS'sum'
p62
I68
sS'current'
p63
I123
sS'ssis'
p64
I426
sS'version'
p65
I344
sS'designing'
p66
I753
sS'new'
p67
I62
sS'net'
p68
I216
sS'duplicated'
p69
I655
sS'hashbytes'
p70
I790
sS'full'
p71
I246
sS'dense_rank'
p72
I313
sS'tags'
p73
I342
sS'modify'
p74
I590
sS'len'
p75
I755
sS'hours'
p76
I493
sS'met'
p77
I656
sS'objects'
p78
I577
sS'studio'
p79
I317
sS'address'
p80
I756
sS'path'
p81
I239
sS'100'
p82
I526
sS'change'
p83
I170
sS'digits'
p84
I402
sS'search'
p85
I107
sS'items'
p86
I398
sS'30'
p87
I292
sS'through'
p88
I547
sS'cte'
p89
I331
sS'loop'
p90
I442
sS'implement'
p91
I281
sS'as400'
p92
I689
sS'instr'
p93
I611
sS'regexp_replace'
p94
I302
sS'app'
p95
I427
sS'compare'
p96
I91
sS'replace'
p97
I121
sS'put'
p98
I582
sS'unix'
p99
I478
sS'boolean'
p100
I410
sS'names'
p101
I310
sS'pulls'
p102
I450
sS'total'
p103
I495
sS'select'
p104
I69
sS'regex'
p105
I469
sS'use'
p106
I88
sS'from'
p107
I16
sS'zip'
p108
I284
sS'0'
p109
I161
sS'distinct'
p110
I119
sS'contains'
p111
I213
sS'two'
p112
I15
sS'optimize'
p113
I272
sS'group_concat'
p114
I322
sS'coalesce'
p115
I555
sS'duplicate'
p116
I64
sS'call'
p117
I176
sS'iphone'
p118
I613
sS'6'
p119
I234
sS'type'
p120
I233
sS'tell'
p121
I542
sS'reorder'
p122
I443
sS'more'
p123
I690
sS'sort'
p124
I336
sS'generate_series'
p125
I691
sS'fulltext'
p126
I559
sS'upcoming'
p127
I352
sS'comparison'
p128
I640
sS'composite'
p129
I318
sS'getting'
p130
I393
sS'it'
p131
I150
sS'particular'
p132
I337
sS'customer'
p133
I757
sS'pivoting'
p134
I309
sS'hour'
p135
I388
sS'this'
p136
I24
sS'work'
p137
I370
sS'tag'
p138
I404
sS'values'
p139
I93
sS'can'
p140
I151
sS'ms'
p141
I327
sS'my'
p142
I152
sS'something'
p143
I264
sS'nearest'
p144
I419
sS'sqlite'
p145
I228
sS'to_char'
p146
I758
sS'figure'
p147
I759
sS'calculation'
p148
I395
sS'attribute'
p149
I527
sS'substring'
p150
I235
sS'hibernate'
p151
I749
sS'<pad>'
p152
I0
sS'minimum'
p153
I159
sS'numbers'
p154
I145
sS'exclude'
p155
I411
sS'rpad'
p156
I385
sS'serial'
p157
I560
sS'counting'
p158
I761
sS'nvarchar'
p159
I379
sS'returned'
p160
I105
sS'information'
p161
I451
sS'end'
p162
I614
sS'recursive'
p163
I189
sS'spreadsheet'
p164
I692
sS'write'
p165
I23
sS'how'
p166
I5
sS'varchar2'
p167
I470
sS'sid'
p168
I561
sS'"'
p169
I780
sS'nhibernate'
p170
I543
sS'csv'
p171
I332
sS'parameter'
p172
I153
sS'sessiontimezone'
p173
I703
sS'powerbuilder'
p174
I762
sS'max'
p175
I110
sS'after'
p176
I353
sS'containing'
p177
I636
sS'collection'
p178
I657
sS'perl'
p179
I489
sS'disable'
p180
I544
sS'varbinary'
p181
I658
sS'date'
p182
I70
sS'data'
p183
I20
sS'types'
p184
I763
sS'privileges'
p185
I403
sS'a'
p186
I9
sS'apostrophes'
p187
I764
sS'listagg'
p188
I274
sS'hstore'
p189
I765
sS'third'
p190
I496
sS'datatype'
p191
I412
sS'bind'
p192
I615
sS'counter'
p193
I766
sS'grails'
p194
I509
sS'django'
p195
I220
sS'fluent'
p196
I617
sS'cascade'
p197
I483
sS'lambda'
p198
I777
sS'order'
p199
I104
sS'longest'
p200
I578
sS'operations'
p201
I767
sS'help'
p202
I130
sS'over'
p203
I178
sS'fall'
p204
I650
sS'entity'
p205
I380
sS'symbols'
p206
I693
sS'combinations'
p207
I482
sS'comma'
p208
I253
sS'converting'
p209
I399
sS'developer'
p210
I396
sS'1'
p211
I347
sS'group'
p212
I77
sS'apex'
p213
I659
sS'combobox'
p214
I479
sS'birthdays'
p215
I354
sS','
p216
I420
sS'coordinates'
p217
I660
sS'better'
p218
I137
sS'bewteen'
p219
I338
sS'window'
p220
I564
sS'complex'
p221
I661
sS'minute'
p222
I565
sS'cross'
p223
I805
sS'alter'
p224
I768
sS'2012'
p225
I769
sS'float'
p226
I355
sS'return'
p227
I480
sS'postgres'
p228
I320
sS'combination'
p229
I359
sS'views'
p230
I529
sS'timestamp'
p231
I191
sS'practice'
p232
I579
sS'number'
p233
I46
sS'records'
p234
I108
sS'letters'
p235
I734
sS'compound'
p236
I389
sS'not'
p237
I50
sS'cakephp'
p238
I360
sS'day'
p239
I155
sS'overlap'
p240
I506
sS'execute'
p241
I173
sS'fetching'
p242
I618
sS'name'
p243
I201
sS'datagridview'
p244
I712
sS'materialized'
p245
I770
sS'decimal'
p246
I171
sS'drop'
p247
I268
sS'merge'
p248
I214
sS'subquery'
p249
I428
sS'each'
p250
I73
sS'permissions'
p251
I619
sS'constraints'
p252
I306
sS'subset'
p253
I620
sS'reset'
p254
I477
sS'financial'
p255
I771
sS'series'
p256
I289
sS'numeric'
p257
I548
sS'joined'
p258
I772
sS'frequency'
p259
I773
sS'connect'
p260
I390
sS'year'
p261
I168
sS'separating'
p262
I580
sS'zeroes'
p263
I821
sS'extract'
p264
I255
sS'special'
p265
I290
sS'out'
p266
I400
sS'category'
p267
I217
sS'whitespace'
p268
I581
sS"'"
p269
I162
sS'space'
p270
I421
sS'rounding'
p271
I530
sS'hive'
p272
I688
sS'pgsql'
p273
I429
sS'7'
p274
I662
sS'debit'
p275
I774
sS'ref'
p276
I651
sS'correct'
p277
I621
sS'row_number'
p278
I202
sS'model'
p279
I571
sS'asp'
p280
I622
sS'contain'
p281
I669
sS'possibility'
p282
I663
sS'ascending'
p283
I776
sS'asc'
p284
I430
sS'nth'
p285
I438
sS'orm'
p286
I348
sS'element'
p287
I546
sS'collation'
p288
I304
sS'earliest'
p289
I623
sS'beginning'
p290
I465
sS'generate'
p291
I229
sS'laravel'
p292
I282
sS'perform'
p293
I718
sS'r2'
p294
I188
sS'lock'
p295
I572
sS'drupal'
p296
I664
sS'activerecord'
p297
I497
sS'camelcase'
p298
I624
sS'days'
p299
I139
sS'times'
p300
I545
sS'filter'
p301
I319
sS'turn'
p302
I531
sS'length'
p303
I160
sS'mvc'
p304
I507
sS'transfer'
p305
I573
sS'relational'
p306
I704
sS'frequent'
p307
I665
sS'first'
p308
I109
sS'rand'
p309
I270
sS'there'
p310
I37
sS'upper'
p311
I778
sS'clause'
p312
I102
sS'variables'
p313
I466
sS'primary'
p314
I193
sS'rank'
p315
I372
sS'one'
p316
I42
sS'isnull'
p317
I361
sS'fetches'
p318
I566
sS'to_date'
p319
I269
sS'another'
p320
I30
sS'array_agg'
p321
I339
sS'neo4j'
p322
I779
sS'array'
p323
I227
sS'open'
p324
I481
sS'size'
p325
I498
sS'given'
p326
I695
sS'management'
p327
I323
sS'script'
p328
I315
sS'leading'
p329
I257
sS'top'
p330
I212
sS'structured'
p331
I696
sS'yii'
p332
I781
sS'returns'
p333
I175
sS'rails'
p334
I447
sS'confirming'
p335
I297
sS'zeros'
p336
I265
sS'statement'
p337
I74
sS'percentage'
p338
I100
sS'store'
p339
I147
sS'schema'
p340
I444
sS'shell'
p341
I340
sS'calculations'
p342
I782
sS'that'
p343
I45
sS'month'
p344
I117
sS'continuous'
p345
I298
sS'lists'
p346
I783
sS'padding'
p347
I625
sS'part'
p348
I294
sS'manipulation'
p349
I295
sS'occurence'
p350
I666
sS'copy'
p351
I179
sS'than'
p352
I184
sS'specify'
p353
I373
sS'12'
p354
I532
sS'target'
p355
I376
sS'edition'
p356
I671
sS'isolation'
p357
I422
sS'database'
p358
I76
sS'iteration'
p359
I697
sS'normalizing'
p360
I454
sS'ss'
p361
I533
sS'r'
p362
I190
sS'str'
p363
I583
sS'declare'
p364
I299
sS'occurences'
p365
I626
sS'extracting'
p366
I312
sS'and'
p367
I172
sS'false'
p368
I508
sS'ifnull'
p369
I305
sS'lines'
p370
I616
sS'queryset'
p371
I784
sS'argument'
p372
I785
sS'raw'
p373
I627
sS'have'
p374
I250
sS'sas'
p375
I210
sS'null'
p376
I78
sS'any'
p377
I698
sS'conversion'
p378
I455
sS'min'
p379
I125
sS'efficient'
p380
I472
sS'translate'
p381
I682
sS'self'
p382
I585
sS'-'
p383
I226
sS'instance'
p384
I424
sS'build'
p385
I567
sS'which'
p386
I164
sS'finding'
p387
I699
sS'multiple'
p388
I115
sS'populate'
p389
I786
sS'index'
p390
I464
sS'object'
p391
I550
sS'falls'
p392
I667
sS'most'
p393
I154
sS'regular'
p394
I167
sS'overlapping'
p395
I215
sS'letter'
p396
I349
sS'entry'
p397
I597
sS'services'
p398
I700
sS'inserted'
p399
I362
sS'why'
p400
I356
sS'salary'
p401
I551
sS'don'
p402
I258
sS'crosstab'
p403
I433
sS'url'
p404
I511
sS'average'
p405
I106
sS'partition'
p406
I192
sS'get_ddl'
p407
I787
sS'points'
p408
I456
sS'clean'
p409
I628
sS'databases'
p410
I377
sS'left'
p411
I138
sS'microsoft'
p412
I788
sS'dot'
p413
I789
sS'joining'
p414
I85
sS'dbi'
p415
I501
sS'groovy'
p416
I702
sS'text'
p417
I266
sS'random'
p418
I148
sS'anyway'
p419
I629
sS'datetime'
p420
I89
sS'spaces'
p421
I296
sS'find'
p422
I35
sS'geography'
p423
I534
sS'xml'
p424
I128
sS'access'
p425
I275
sS'slow'
p426
I535
sS'based'
p427
I54
sS'parameters'
p428
I512
sS'('
p429
I97
sS'transact'
p430
I791
sS'state'
p431
I586
sS'analytic'
p432
I431
sS'won'
p433
I792
sS'combo'
p434
I502
sS'equivalents'
p435
I630
sS'constant'
p436
I822
sS'local'
p437
I793
sS'columns'
p438
I65
sS'do'
p439
I7
sS'handle'
p440
I473
sS'get'
p441
I14
sS'dd'
p442
I528
sS'express'
p443
I333
sS'<eos>'
p444
I2
sS'fastest'
p445
I280
sS'words'
p446
I668
sS'consecutive'
p447
I425
sS'report'
p448
I247
sS'db2'
p449
I631
sS'temp'
p450
I144
sS'approach'
p451
I710
sS'remove'
p452
I183
sS'calling'
p453
I413
sS'arrays'
p454
I417
sS'current_timestamp'
p455
I675
sS'common'
p456
I386
sS'queries'
p457
I43
sS'x'
p458
I205
sS'creates'
p459
I587
sS'where'
p460
I101
sS'view'
p461
I84
sS'set'
p462
I670
sS'computed'
p463
I706
sS'exists'
p464
I80
sS'maximum'
p465
I51
sS'connections'
p466
I707
sS'checks'
p467
I604
sS'see'
p468
I552
sS'are'
p469
I52
sS'hell'
p470
I794
sS'escaping'
p471
I397
sS'best'
p472
I39
sS'#'
p473
I271
sS'delphi'
p474
I708
sS'filename'
p475
I588
sS'boundaries'
p476
I709
sS'3'
p477
I467
sS'connection'
p478
I471
sS'between'
p479
I27
sS'import'
p480
I363
sS'newlines'
p481
I725
sS'conditions'
p482
I381
sS'across'
p483
I589
sS'concatenate'
p484
I263
sS'creating'
p485
I796
sS'missing'
p486
I129
sS'component'
p487
I754
sS'prior'
p488
I570
sS'transpose'
p489
I243
sS'js'
p490
I401
sS'job'
p491
I797
sS'key'
p492
I113
sS'outer'
p493
I143
sS'optional'
p494
I711
sS'improve'
p495
I633
sS'dates'
p496
I38
sS'last'
p497
I124
sS'triggers'
p498
I568
sS'coldfusion'
p499
I439
sS'hint'
p500
I726
sS'equal'
p501
I206
sS'against'
p502
I513
sS'foreign'
p503
I127
sS'sensitive'
p504
I364
sS's'
p505
I230
sS'<unk>'
p506
I3
sS'expression'
p507
I163
sS'finds'
p508
I591
sS'load'
p509
I405
sS'dbtimezone'
p510
I713
sS'point'
p511
I514
sS'simple'
p512
I798
sS'datediff'
p513
I293
sS'dbms_metadata'
p514
I799
sS'adding'
p515
I350
sS'framework'
p516
I365
sS'table'
p517
I21
sS'forms'
p518
I569
sS'combines'
p519
I252
sS'codeigniter'
p520
I382
sS'union'
p521
I301
sS'create'
p522
I34
sS'<sos>'
p523
I1
sS'three'
p524
I800
sS'.'
p525
I126
sS'migrate'
p526
I607
sS'json'
p527
I329
sS'trigger'
p528
I120
sS'expected'
p529
I715
sS'flexible'
p530
I634
sS'pl'
p531
I67
sS'location'
p532
I592
sS'dots'
p533
I484
sS'box'
p534
I494
sS'with'
p535
I56
sS'convert'
p536
I63
sS'bulk'
p537
I406
sS'occurrences'
p538
I440
sS'quickest'
p539
I795
sS'lpad'
p540
I387
sS'ruby'
p541
I593
sS'present'
p542
I72
sS'case'
p543
I79
sS'twist'
p544
I802
sS'handling'
p545
I687
sS'look'
p546
I716
sS'these'
p547
I55
sS'enrollment'
p548
I300
sS'as'
p549
I448
sS'value'
p550
I29
sS'n'
p551
I196
sS'cursor'
p552
I141
sS'optimization'
p553
I231
sS'behavior'
p554
I635
sS'procedure'
p555
I81
sS'rename'
p556
I474
sS'vb'
p557
I223
sS'changed'
p558
I744
sS'increment'
p559
I357
sS'is'
p560
I22
sS'concatenation'
p561
I262
sS'according'
p562
I717
sS'parse'
p563
I414
sS'bigint'
p564
I461
sS'in'
p565
I11
sS'insensitive'
p566
I335
sS'rid'
p567
I244
sS'avg'
p568
I392
sS'id'
p569
I185
sS'greater'
p570
I209
sS'result'
p571
I278
sS'different'
p572
I86
sS'recover'
p573
I760
sS'ado'
p574
I638
sS'grant'
p575
I326
sS')'
p576
I98
sS'recursion'
p577
I553
sS'make'
p578
I256
sS'cumulative'
p579
I328
sS'merging'
p580
I222
sS'same'
p581
I99
sS'epoch'
p582
I719
sS'strange'
p583
I637
sS'split'
p584
I82
sS'copying'
p585
I345
sS'auto'
p586
I374
sS'android'
p587
I177
sS'conflict'
p588
I458
sS'week'
p589
I194
sS'used'
p590
I674
sS'temporary'
p591
I157
sS'closest'
p592
I594
sS'declaring'
p593
I486
sS'reporting'
p594
I720
sS'ios'
p595
I554
sS'yesterday'
p596
I595
sS'running'
p597
I596
sS'uses'
p598
I285
sS'user'
p599
I307
sS'characters'
p600
I200
sS'aggregate'
p601
I721
sS'validate'
p602
I806
sS'identity'
p603
I276
sS'recent'
p604
I158
sS'transaction'
p605
I358
sS'scenario'
p606
I341
sS'older'
p607
I316
sS'i'
p608
I8
sS'macro'
p609
I807
sS'builder'
p610
I251
sS'intervals'
p611
I705
sS'greatest'
p612
I722
sS'netezza'
p613
I723
sS'position'
p614
I510
sS'the'
p615
I12
sS'latest'
p616
I142
sS'comment'
p617
I459
sS'construct'
p618
I500
sS'clob'
p619
I475
sS'less'
p620
I487
sS'when'
p621
I463
sS'quotes'
p622
I460
sS'stored'
p623
I90
sS'kill'
p624
I724
sS'mysql'
p625
I36
sS'years'
p626
I676
sS'speed'
p627
I225
sS'previous'
p628
I343
sS'tables'
p629
I19
sS'now'
p630
I515
sS'multiplication'
p631
I808
sS'$'
p632
I809
sS'grouped'
p633
I321
sS'subqueries'
p634
I677
sS'extra'
p635
I810
sS'character'
p636
I279
sS'\\'
p637
I736
sS'add'
p638
I114
sS'combine'
p639
I71
sS'4'
p640
I369
sS'role'
p641
I504
sS'has'
p642
I166
sS'regexp_substr'
p643
I516
sS'unnest'
p644
I536
sS'match'
p645
I291
sS'varying'
p646
I815
sS'varchar'
p647
I103
sS'comments'
p648
I517
sS'format'
p649
I165
sS'checking'
p650
I445
sS'possible'
p651
I156
sS'reuse'
p652
I537
sS'alias'
p653
I584
sS'integer'
p654
I259
sS'bit'
p655
I598
sS'unique'
p656
I132
sS'desc'
p657
I728
sS'insert'
p658
I61
sS'like'
p659
I133
sS'achieve'
p660
I812
sS'server'
p661
I28
sS'specific'
p662
I237
sS'collect'
p663
I415
sS'newid'
p664
I639
sS't'
p665
I195
sS'popular'
p666
I324
sS'output'
p667
I283
sS'65'
p668
I714
sS'old'
p669
I599
sS'sequence'
p670
I325
sS'concat'
p671
I449
sS'conditional'
p672
I287
sS'xmltype'
p673
I518
sS'yyyy'
p674
I519
sS'export'
p675
I434
sS'escape'
p676
I260
sS'duration'
p677
I539
sS'ignore'
p678
I814
sS'entities'
p679
I729
sS'for'
p680
I96
sS'opposite'
p681
I549
sS'ilike'
p682
I678
sS'per'
p683
I238
sS'defined'
p684
I801
sS'does'
p685
I730
sS'connecting'
p686
I314
sS'statements'
p687
I606
sS'timestamps'
p688
I236
sS'infile'
p689
I407
sS'?'
p690
I4
sS'orientdb'
p691
I679
sS'package'
p692
I644
sS'newline'
p693
I731
sS'run'
p694
I468
sS'power'
p695
I600
sS'seconds'
p696
I375
sS'word'
p697
I441
sS'equivalent'
p698
I186
sS'enum'
p699
I520
sS'if'
p700
I48
sS'ratios'
p701
I732
sS'offset'
p702
I601
sS'regexp'
p703
I733
sS'subtract'
p704
I680
sS'by'
p705
I58
sS'sysdate'
p706
I371
sS'on'
p707
I53
sS'postgresql'
p708
I122
sS'working'
p709
I488
sS'extension'
p710
I446
sS'constraint'
p711
I116
sS'column'
p712
I17
sS'of'
p713
I18
sS'months'
p714
I538
sS'stamp'
p715
I602
sS'range'
p716
I218
sS'mixed'
p717
I816
sS'messaging'
p718
I503
sS'backup'
p719
I521
sS'or'
p720
I346
sS'dplyr'
p721
I562
sS'into'
p722
I59
sS'within'
p723
I232
sS'parsing'
p724
I199
sS'milliseconds'
p725
I681
sS'determine'
p726
I311
sS'operator'
p727
I174
sS'pivot'
p728
I95
sS'next'
p729
I351
sS'rows'
p730
I25
sS'comparing'
p731
I612
sS'removing'
p732
I452
sS'*'
p733
I140
sS'question'
p734
I242
sS'transform'
p735
I735
sS'custom'
p736
I248
sS'decode'
p737
I476
sS'start'
p738
I641
sS'wordpress'
p739
I603
sS'inner'
p740
I308
sS'way'
p741
I26
sS':'
p742
I41
sS'function'
p743
I112
sS'sqlalchemy'
p744
I556
sS'form'
p745
I817
sS'concatenated'
p746
I818
sS'differences'
p747
I574
sS'linq'
p748
I169
sS'hh'
p749
I522
sS'hierarchical'
p750
I245
sS'link'
p751
I819
sS'accessing'
p752
I820
sS'line'
p753
I605
sS'highest'
p754
I416
sS'true'
p755
I330
sS'getdate'
p756
I208
sS'count'
p757
I44
sS'utc'
p758
I490
sS'largest'
p759
I642
sS'places'
p760
I241
sS'default'
p761
I197
sS'inside'
p762
I462
sS'up'
p763
I219
sS'record'
p764
I111
sS'limit'
p765
I136
sS'empty'
p766
I118
sS'minutes'
p767
I249
sS'clear'
p768
I737
sS'uniqueidentifer'
p769
I334
sS'delete'
p770
I87
sS'trim'
p771
I432
sS'separated'
p772
I254
sS'hash'
p773
I632
sS'item'
p774
I747
sS'int'
p775
I288
sS'certain'
p776
I198
sS'combining'
p777
I435
sS'zend'
p778
I738
sS'doesn'
p779
I394
sS'an'
p780
I211
sS'char'
p781
I739
sS'images'
p782
I813
sS'single'
p783
I261
sS'ssrs'
p784
I221
sS'exist'
p785
I273
sS'file'
p786
I286
sS'nulls'
p787
I804
sS'importing'
p788
I408
sS'timezone'
p789
I740
sS'timediff'
p790
I645
sS'trailing'
p791
I303
sS'check'
p792
I49
sS'nzsql'
p793
I683
sS'nvl'
p794
I811
sS'%'
p795
I383
sS'polygon'
p796
I523
sS'excel'
p797
I366
sS'field'
p798
I134
sS'other'
p799
I181
sS'5'
p800
I277
sS'you'
p801
I557
sS'node'
p802
I378
sS'elements'
p803
I684
sS'wildcard'
p804
I741
sS'calculating'
p805
I742
sS'separate'
p806
I823
sS'toad'
p807
I824
sS'mongodb'
p808
I240
sS'time'
p809
I180
sS'problems'
p810
I825
sS'update'
p811
I40
sS'prepared'
p812
I743
sS'directory'
p813
I505
sS'sql'
p814
I6
sS'variable'
p815
I149
sS'structure'
p816
I437
sS'tricky'
p817
I608
sS'remote'
p818
I646
sS'faster'
p819
I384
sS'using'
p820
I146
sS'age'
p821
I558
sS'interval'
p822
I609
sS'2007'
p823
I826
sS'2005'
p824
I203
sS'oracle'
p825
I32
sS'2008'
p826
I131
sS'strings'
p827
I391
s.