(dp0
S'1,2'
p1
I5438
sS'1,1'
p2
I7525
sS'four'
p3
I1913
sS'prefix'
p4
I923
sS'suqueries'
p5
I1704
sS'parameterization'
p6
I1978
sS'check_ins'
p7
I7263
sS'sumproduct'
p8
I1930
sS'jpa/hibernate'
p9
I4989
sS'sequencial'
p10
I6246
sS"'insert"
p11
I3803
sS'looking'
p12
I1088
sS'granting'
p13
I5278
sS'aggregations'
p14
I1424
sS'inner-query'
p15
I7406
sS'alphabetic'
p16
I5038
sS'recordsets'
p17
I5741
sS'digit'
p18
I763
sS'2005+'
p19
I5898
sS'mysql\xef\xbc\x9ahow'
p20
I5973
sS'bringing'
p21
I4611
sS'differentiated'
p22
I6920
sS'basics'
p23
I4722
sS'internally'
p24
I2631
sS'stair-steps'
p25
I3431
sS'ferarris'
p26
I6275
sS'wednesday'
p27
I2214
sS'vsql'
p28
I3740
sS'persisted'
p29
I5177
sS'b.id'
p30
I3274
sS'succession'
p31
I5683
sS'prepending'
p32
I6871
sS'listview'
p33
I3576
sS'commented'
p34
I4858
sS'incremented'
p35
I1127
sS'hanging'
p36
I5687
sS'bacon'
p37
I5532
sS'budget'
p38
I3783
sS'elegant'
p39
I2363
sS'second'
p40
I50
sS'fech'
p41
I4321
sS'errors'
p42
I2021
sS'regex_substr'
p43
I7288
sS'localized'
p44
I7121
sS'designing'
p45
I3649
sS'increasing'
p46
I1151
sS'groupid'
p47
I5868
sS'widget'
p48
I6441
sS'reliably'
p49
I3384
sS'error'
p50
I1358
sS'27m'
p51
I4869
sS'here'
p52
I420
sS'reported'
p53
I6977
sS'many-to-many-to-many'
p54
I6174
sS'yyyymm'
p55
I6241
sS'k'
p56
I6896
sS'nulls'
p57
I621
sS'reports'
p58
I1317
sS'military'
p59
I3467
sS'spotty'
p60
I7318
sS'segments'
p61
I2254
sS'9i'
p62
I4485
sS'appropriately'
p63
I3775
sS'divide'
p64
I975
sS'classification'
p65
I2826
sS'regexp_replace'
p66
I1261
sS'explained'
p67
I4894
sS'replace'
p68
I70
sS'substr'
p69
I1493
sS'unix'
p70
I2423
sS'classifieds'
p71
I3940
sS'unit'
p72
I4521
sS'2005/2008'
p73
I3101
sS'abbreviations'
p74
I4556
sS'moth'
p75
I3377
sS'music'
p76
I5145
sS'rls'
p77
I297
sS'tokenize'
p78
I7725
sS'until'
p79
I1881
sS'isdeleted'
p80
I7637
sS'mired'
p81
I7214
sS'de-concatenate'
p82
I2834
sS'successful'
p83
I2715
sS'jms'
p84
I2490
sS'99'
p85
I2602
sS'delemeters'
p86
I7483
sS'90'
p87
I472
sS'hold'
p88
I3636
sS'97'
p89
I4025
sS'locked'
p90
I5979
sS'concepts'
p91
I5270
sS'example'
p92
I1298
sS'postgressql'
p93
I3534
sS'household'
p94
I7466
sS'organized'
p95
I6025
sS'forrun'
p96
I6189
sS'currency'
p97
I1065
sS'want'
p98
I173
sS'absolute'
p99
I5856
sS'hoc'
p100
I1674
sS'feature'
p101
I1138
sS'machine'
p102
I1491
sS'how'
p103
I25
sS'methodology'
p104
I5525
sS'mon-yyyy'
p105
I7565
sS'actionscript'
p106
I5937
sS'nhibernate'
p107
I150
sS'preferable'
p108
I6954
sS'classify'
p109
I6110
sS'minimums'
p110
I4910
sS'typed'
p111
I4977
sS'diagram'
p112
I281
sS'wrong'
p113
I650
sS'types'
p114
I218
sS'postgesql'
p115
I6649
sS'effective'
p116
I1523
sS'wins'
p117
I3856
sS'alias'
p118
I801
sS'keeps'
p119
I4169
sS'restriction'
p120
I2498
sS'feedback'
p121
I3171
sS'vars'
p122
I6282
sS'shorten'
p123
I896
sS'where-in'
p124
I2141
sS'vary'
p125
I3597
sS'1-10'
p126
I5766
sS'concurrency'
p127
I2120
sS'1-12'
p128
I1955
sS'pseudotables'
p129
I5263
sS'sp_send_dbmail'
p130
I1512
sS'fit'
p131
I5312
sS'rankings'
p132
I7020
sS'fix'
p133
I2676
sS'diffrent'
p134
I5026
sS'udfs'
p135
I6776
sS'bewteen'
p136
I4847
sS'hidden'
p137
I3982
sS'easier'
p138
I2207
sS'asc|desc'
p139
I1002
sS'flipping'
p140
I7519
sS'effects'
p141
I3137
sS'seperataed'
p142
I3827
sS'+/-'
p143
I4695
sS'multidimensional'
p144
I1108
sS'procs'
p145
I5939
sS'represents'
p146
I3258
sS'date_field'
p147
I7754
sS'foregin'
p148
I5603
sS'timeout'
p149
I3452
sS'debug'
p150
I5511
sS'timestamp/datetime'
p151
I5402
sS'sqlce'
p152
I3487
sS'preceded'
p153
I5988
sS'sqlscript'
p154
I4903
sS'mdb'
p155
I3350
sS'series'
p156
I1125
sS'mdf'
p157
I5609
sS'mdx'
p158
I1110
sS'passwords'
p159
I6941
sS'delimted'
p160
I7380
sS'xs'
p161
I5477
sS'mongoid'
p162
I7441
sS'case..when'
p163
I5685
sS'greatest-n-per-group'
p164
I4130
sS'xp'
p165
I6213
sS'overwrite'
p166
I1891
sS'trending'
p167
I5320
sS'rs'
p168
I5446
sS'dst'
p169
I6556
sS'smo'
p170
I2590
sS're'
p171
I6006
sS'unrelated'
p172
I4945
sS'adapt'
p173
I5564
sS'dd.mm.yyyy'
p174
I5274
sS'engineer'
p175
I7383
sS'ado.net'
p176
I527
sS'300-21-02'
p177
I76
sS'executesql'
p178
I6675
sS'corelated'
p179
I3436
sS'checked'
p180
I4281
sS'md5'
p181
I2778
sS'enormous'
p182
I387
sS'exposing'
p183
I3690
sS'r2'
p184
I653
sS'ups'
p185
I7341
sS'shipped'
p186
I6163
sS'reserving'
p187
I2245
sS'resetting'
p188
I2455
sS'speeds'
p189
I6161
sS'audit-entry'
p190
I4563
sS'elmininate'
p191
I6658
sS'he'
p192
I6532
sS'service'
p193
I2851
sS'datefirst'
p194
I6064
sS'tsql'
p195
I739
sS'1,2,3,4'
p196
I3324
sS"ssms'08"
p197
I6817
sS'non-nulls'
p198
I1208
sS'sqlcmd'
p199
I5140
sS'master'
p200
I703
sS'listed'
p201
I3987
sS'collapse'
p202
I3262
sS'merge/select'
p203
I1808
sS'cdate'
p204
I7733
sS'\xe2\x80\x8b\xe2\x80\x8bin'
p205
I2771
sS'2008+'
p206
I6833
sS'cdata'
p207
I7417
sS'datemodified'
p208
I5330
sS'date_format'
p209
I3735
sS'iteration'
p210
I1966
sS'project'
p211
I3353
sS'rows-to-cols'
p212
I7644
sS'treeview'
p213
I3930
sS'columns/fields'
p214
I6782
sS'sys_connect_by_path'
p215
I3152
sS'filemaker'
p216
I5561
sS"'o"
p217
I7708
sS'increment'
p218
I431
sS'pl\\sql'
p219
I5151
sS'dedupe'
p220
I4019
sS'satement'
p221
I5693
sS'cyrillic'
p222
I4577
sS'spooling'
p223
I5516
sS'recommended'
p224
I968
sS'causing'
p225
I4574
sS'dbms_scheduler'
p226
I1511
sS'if/case'
p227
I1513
sS'condition.get'
p228
I7092
sS'committing'
p229
I6391
sS'unknow'
p230
I3078
sS'transactions'
p231
I797
sS'database/sql'
p232
I6860
sS'object'
p233
I576
sS'metrics'
p234
I5906
sS'simplify'
p235
I220
sS'letter'
p236
I474
sS'organization'
p237
I4918
sS'retaining'
p238
I3761
sS'dummy'
p239
I2039
sS'episode'
p240
I2342
sS'pgadmin'
p241
I5398
sS'vertices'
p242
I6693
sS'foriegn'
p243
I7599
sS'memberships'
p244
I6882
sS'came'
p245
I2902
sS'foreignkeys'
p246
I7019
sS'saying'
p247
I4972
sS'muddleup'
p248
I6200
sS'padded'
p249
I4401
sS'`only'
p250
I7576
sS'to/from'
p251
I4481
sS'layout'
p252
I939
sS'shuffling'
p253
I4860
sS'menu'
p254
I6351
sS'theme'
p255
I6858
sS"'no"
p256
I4444
sS'meeting1'
p257
I6604
sS'sessiontimezone'
p258
I4259
sS'meeting2'
p259
I6605
sS'mutli-queries'
p260
I3965
sS'reversal'
p261
I7613
sS'utl_smtp.write_data'
p262
I5061
sS'net'
p263
I4511
sS'preemptively'
p264
I6001
sS'datafile'
p265
I5293
sS'nicely'
p266
I7661
sS'ever'
p267
I4527
sS'patch'
p268
I7533
sS'release'
p269
I2698
sS'user_source'
p270
I2759
sS'traverse'
p271
I3697
sS'mandatory'
p272
I3700
sS'sensitivity'
p273
I5397
sS'unexpectedly'
p274
I4379
sS'radius'
p275
I2234
sS'result'
p276
I367
sS'fail'
p277
I2865
sS'best'
p278
I1814
sS'manytomany_id'
p279
I7022
sS'tempdb'
p280
I5229
sS'lots'
p281
I1847
sS'delphi'
p282
I1321
sS'stamps'
p283
I6132
sS'score'
p284
I2188
sS'data.table'
p285
I7506
sS'subarray'
p286
I1840
sS'multithreaded'
p287
I3574
sS'preserve'
p288
I3834
sS'preferent'
p289
I7077
sS'extend'
p290
I1431
sS'nature'
p291
I5466
sS'personalize'
p292
I7643
sS'str-function'
p293
I5224
sS'currentdate'
p294
I6310
sS'mvc4'
p295
I1452
sS'yii2'
p296
I1695
sS'mvc2'
p297
I5800
sS'triggers'
p298
I805
sS'country'
p299
I685
sS'adapter'
p300
I5794
sS'5.1.41'
p301
I7109
sS'logic'
p302
I656
sS'login'
p303
I971
sS'agregation'
p304
I7096
sS'asked'
p305
I2012
sS'ibatis/mybatis'
p306
I2628
sS'and'
p307
I47
sS"'exists"
p308
I6190
sS'2nf'
p309
I2866
sS'2nd'
p310
I673
sS'102'
p311
I5967
sS'kohana'
p312
I4415
sS'iphone/ipad'
p313
I2857
sS'autoupdate'
p314
I6542
sS'diff'
p315
I3313
sS'250'
p316
I4828
sS'255'
p317
I5412
sS'billing'
p318
I6622
sS'eager'
p319
I2324
sS'union'
p320
I982
sS'fri'
p321
I7325
sS'variable/value'
p322
I7217
sS'frm'
p323
I1364
sS'.'
p324
I77
sS'restarts'
p325
I5334
sS'extraction'
p326
I1665
sS'mutilple'
p327
I3595
sS'much'
p328
I1248
sS'privilege'
p329
I3486
sS'dots'
p330
I3583
sS'life'
p331
I3774
sS'worker'
p332
I6928
sS'xquery/xpath'
p333
I6380
sS'spid'
p334
I3992
sS'child'
p335
I1133
sS'worked'
p336
I2664
sS'datatable'
p337
I2748
sS'unsold'
p338
I5309
sS'atomicity'
p339
I603
sS'typoscript'
p340
I6995
sS'ugly'
p341
I7610
sS'convert/encode'
p342
I7705
sS'cross-referencing'
p343
I6168
sS'hard-coded'
p344
I3120
sS'played'
p345
I6616
sS'toolkit'
p346
I4036
sS'top1'
p347
I6037
sS'conditioned'
p348
I2817
sS'obeying'
p349
I7306
sS'player'
p350
I3531
sS'simple.data'
p351
I2323
sS"'none"
p352
I5387
sS'trusted'
p353
I7631
sS'trustee'
p354
I7461
sS'deferrable'
p355
I6825
sS'things'
p356
I2193
sS'cumulative'
p357
I795
sS'split'
p358
I244
sS'rownum'
p359
I1201
sS'couple'
p360
I4472
sS'varchar/nvarchar'
p361
I3098
sS'templates'
p362
I4630
sS'fairly'
p363
I3727
sS'schema-trigger'
p364
I5594
sS'filenames'
p365
I6462
sS'ownership'
p366
I5060
sS'tune'
p367
I4818
sS'subgroups'
p368
I5034
sS'suitable'
p369
I6013
sS'sql_variant'
p370
I6741
sS'loop/pivot'
p371
I3799
sS'academic'
p372
I3279
sS'maxima'
p373
I5858
sS'opinions'
p374
I5938
sS'decreasing'
p375
I7103
sS'distribute'
p376
I2185
sS'tilde'
p377
I6855
sS'coulmn'
p378
I6681
sS'previous'
p379
I445
sS'subtracts'
p380
I7183
sS'ease'
p381
I6466
sS'had'
p382
I2250
sS'collections'
p383
I1148
sS'easy'
p384
I2495
sS'placeholders'
p385
I2529
sS'has'
p386
I156
sS'column_name'
p387
I4948
sS'clouse'
p388
I5430
sS'wcf'
p389
I5715
sS'possible'
p390
I14
sS'possibly'
p391
I1122
sS'birth'
p392
I1609
sS'clustered'
p393
I2489
sS'unique'
p394
I38
sS'occurring'
p395
I119
sS'complexe'
p396
I2653
sS'steps'
p397
I1873
sS'right'
p398
I348
sS'old'
p399
I3209
sS'ole'
p400
I2339
sS'people'
p401
I1295
sS'object-relational'
p402
I6442
sS'proportionally'
p403
I7120
sS'truncates'
p404
I7328
sS'impdp'
p405
I5053
sS'for'
p406
I37
sS'bottom'
p407
I984
sS'killing'
p408
I5554
sS'continue'
p409
I1503
sS'timestamps'
p410
I1011
sS'foo'
p411
I3926
sS'barcode'
p412
I5426
sS'shifting'
p413
I4504
sS'losing'
p414
I883
sS"'between"
p415
I2730
sS'sysdate'
p416
I2052
sS'dollars'
p417
I7503
sS'o'
p418
I4762
sS'summarise'
p419
I3802
sS'joomla'
p420
I5041
sS'suggestions'
p421
I5762
sS'slightly'
p422
I1120
sS'statements'
p423
I152
sS'short-circuit'
p424
I6375
sS'facility'
p425
I4242
sS'vlookup'
p426
I2543
sS'son'
p427
I1644
sS'transactrion'
p428
I6734
sS'segment_name'
p429
I7488
sS'select/join'
p430
I5590
sS'reducing'
p431
I4846
sS'paragrahs'
p432
I7421
sS'support'
p433
I2620
sS'width'
p434
I5691
sS'wordpress'
p435
I1983
sS'resulted'
p436
I5588
sS'launching'
p437
I5750
sS'mptt'
p438
I3412
sS'offer'
p439
I6256
sS'concatenated'
p440
I2034
sS'notifications'
p441
I3287
sS'multi-table'
p442
I613
sS'arrays'
p443
I594
sS'inside'
p444
I143
sS'2008/2012'
p445
I5720
sS'mongomapper'
p446
I5356
sS'devices'
p447
I3541
sS'start_date'
p448
I2762
sS'considered'
p449
I2453
sS'powershell'
p450
I2725
sS'<unk>'
p451
I3
sS'150'
p452
I3931
sS"'2"
p453
I4714
sS"'1"
p454
I4713
sS"'0"
p455
I1785
sS'homogenous'
p456
I4658
sS'implications'
p457
I294
sS"'="
p458
I2473
sS"''"
p459
I75
sS'exist'
p460
I669
sS"'/"
p461
I1484
sS'accounting'
p462
I3050
sS"'-"
p463
I5260
sS"'+"
p464
I5774
sS"'*"
p465
I358
sS"'extra"
p466
I2724
sS'recodrs'
p467
I5650
sS'eventual'
p468
I6835
sS'floor'
p469
I4185
sS'role'
p470
I1822
sS'brings'
p471
I7281
sS'findout'
p472
I7472
sS'developers'
p473
I3064
sS'roll'
p474
I1012
sS"'s"
p475
I22
sS"'r"
p476
I3661
sS'models'
p477
I2071
sS"'|"
p478
I6459
sS'asterisk'
p479
I3787
sS"'y"
p480
I3178
sS"'x"
p481
I2174
sS'substract'
p482
I4780
sS"'f"
p483
I5157
sS"'d"
p484
I3683
sS"'b"
p485
I5004
sS"'a"
p486
I4650
sS'variable'
p487
I452
sS"'n"
p488
I1409
sS"'m"
p489
I391
sS'serialized'
p490
I3369
sS'contacts'
p491
I368
sS'mm-dd'
p492
I4748
sS'time'
p493
I93
sS'push'
p494
I3286
sS'osx'
p495
I3378
sS'childs'
p496
I3525
sS'newbie'
p497
I2042
sS'chain'
p498
I2239
sS'activated'
p499
I3571
sS'hsql'
p500
I5529
sS'millisecond'
p501
I5378
sS'uneven'
p502
I3396
sS'effeciently'
p503
I3565
sS'pivottable'
p504
I2176
sS'downloading'
p505
I3970
sS'programmatically'
p506
I1848
sS'utl_match'
p507
I7094
sS'two-way'
p508
I4800
sS'consolidation'
p509
I5914
sS'choice'
p510
I503
sS'occurrance'
p511
I4311
sS'stays'
p512
I2513
sS'exact'
p513
I2289
sS'minute'
p514
I2144
sS'result-set'
p515
I5411
sS'xmltable'
p516
I4554
sS'leave'
p517
I4711
sS'solved'
p518
I3905
sS'defaults'
p519
I5112
sS'team'
p520
I1168
sS'loads'
p521
I5999
sS'prevent'
p522
I2846
sS'occurrence'
p523
I1136
sS'ora-00923'
p524
I6723
sS'sign'
p525
I1962
sS'incrementally'
p526
I3671
sS'wm_concat'
p527
I2645
sS'melt'
p528
I2611
sS'current'
p529
I235
sS'cateorical'
p530
I3871
sS'falling'
p531
I6147
sS'performant'
p532
I1755
sS'totalling'
p533
I6682
sS'dropdown'
p534
I3183
sS'understanding'
p535
I1907
sS'address'
p536
I2400
sS'alone'
p537
I3126
sS'along'
p538
I932
sS'enroll'
p539
I2662
sS'vb.net'
p540
I842
sS'vectors'
p541
I5705
sS'commonly'
p542
I6559
sS'meta_key'
p543
I5281
sS'queue'
p544
I1721
sS'`in`'
p545
I2952
sS'concatenations'
p546
I5235
sS'over-counting'
p547
I7683
sS'tasks'
p548
I2258
sS'prefer'
p549
I3173
sS'logical'
p550
I1382
sS'ips'
p551
I7255
sS'logically'
p552
I4657
sS'fake'
p553
I3294
sS'traversing'
p554
I5073
sS'bookmarks'
p555
I5615
sS'flagging'
p556
I6598
sS'whitch'
p557
I6159
sS'working'
p558
I305
sS'positive'
p559
I1963
sS'mm/dd/yyyy'
p560
I1479
sS'arithmatic'
p561
I6808
sS'readability'
p562
I6663
sS'value2'
p563
I1890
sS'wondering'
p564
I392
sS'cyymmdd'
p565
I6285
sS'scope'
p566
I3995
sS'``'
p567
I73
sS'validity'
p568
I7609
sS'visual'
p569
I3455
sS'yyyy/mm'
p570
I7568
sS'cardinality'
p571
I5799
sS"'day"
p572
I3307
sS'easiest'
p573
I2494
sS'parameterize'
p574
I5968
sS'lowercase'
p575
I3709
sS'valued'
p576
I2017
sS'recurrance'
p577
I6212
sS"'date"
p578
I6437
sS'dsum'
p579
I7706
sS'printing'
p580
I567
sS'values'
p581
I33
sS'slowness'
p582
I6951
sS'following'
p583
I804
sS'detached'
p584
I4490
sS'date_add'
p585
I1454
sS'many-many'
p586
I3420
sS'degenerate'
p587
I6289
sS'employess'
p588
I7652
sS'locks'
p589
I5262
sS'incremental'
p590
I1691
sS'allowed'
p591
I1701
sS'divided'
p592
I1553
sS'multi-columns'
p593
I138
sS'optimal'
p594
I418
sS'parameter'
p595
I59
sS'protobuf'
p596
I1449
sS'spot'
p597
I6799
sS'applications'
p598
I1399
sS'date'
p599
I276
sS'such'
p600
I564
sS'data'
p601
I195
sS"'employee_name"
p602
I6627
sS'natural'
p603
I3080
sS'correlate'
p604
I5015
sS'ss'
p605
I2203
sS'sp'
p606
I2338
sS'yielding'
p607
I1779
sS'sh'
p608
I6332
sS'so'
p609
I397
sS'hh24'
p610
I5275
sS'definitions'
p611
I1894
sS'pulled'
p612
I2414
sS'se'
p613
I4609
sS'sd'
p614
I4915
sS'addresses'
p615
I357
sS'webpage'
p616
I4305
sS'years'
p617
I751
sS'course'
p618
I1500
sS'episodes'
p619
I7002
sS'omitting'
p620
I3303
sS'datestamp'
p621
I3197
sS'derive'
p622
I4781
sS'disconnect'
p623
I2098
sS'openrowset'
p624
I4863
sS'troubles'
p625
I3635
sS'hot'
p626
I6182
sS'decreases'
p627
I6418
sS'iseries'
p628
I346
sS'renaming'
p629
I1249
sS'move/copy'
p630
I7270
sS'chaining'
p631
I521
sS'matches'
p632
I471
sS'subordinates'
p633
I4578
sS'records'
p634
I130
sS'drilling'
p635
I890
sS'subscribers'
p636
I1926
sS'sorted'
p637
I1326
sS'z-score'
p638
I5370
sS'\\'
p639
I5638
sS'maintaining'
p640
I2626
sS'matched'
p641
I1866
sS'config'
p642
I5362
sS'revert'
p643
I4018
sS'excude'
p644
I2702
sS'stackexchange'
p645
I3157
sS'quarter'
p646
I1841
sS'crossapply'
p647
I1949
sS'square'
p648
I3682
sS'retrieve'
p649
I145
sS'receipt'
p650
I3398
sS'entering'
p651
I606
sS'bindingsource'
p652
I6634
sS'workdays'
p653
I4958
sS'predefined'
p654
I1697
sS'container'
p655
I4927
sS'rounding'
p656
I1076
sS'collisions'
p657
I963
sS'contained'
p658
I1760
sS'exploding'
p659
I7211
sS'internet'
p660
I3972
sS'formula'
p661
I43
sS'1-to-many'
p662
I7049
sS'unifying'
p663
I2549
sS'hibernate'
p664
I1278
sS'million'
p665
I3331
sS'weblink'
p666
I6813
sS'possibility'
p667
I596
sS'quite'
p668
I6713
sS'ocurrences'
p669
I7173
sS'recordings'
p670
I7615
sS'complicated'
p671
I1346
sS'byte'
p672
I2224
sS'unnamed'
p673
I7292
sS'remainder'
p674
I6690
sS'training'
p675
I3630
sS'collapsing'
p676
I1275
sS'iterative'
p677
I2078
sS'not-null'
p678
I1817
sS'separator'
p679
I2776
sS'massive'
p680
I6534
sS'saving'
p681
I898
sS'case/if'
p682
I2359
sS'clause'
p683
I248
sS'semi-duplicates'
p684
I7621
sS'nested'
p685
I191
sS'isnull'
p686
I945
sS'ony'
p687
I7687
sS'computing'
p688
I3605
sS'submit'
p689
I4461
sS'supressed'
p690
I6592
sS'vote'
p691
I1137
sS'open'
p692
I2238
sS'city'
p693
I3619
sS'uniqueidentifier'
p694
I1308
sS'structured'
p695
I4332
sS'indicate'
p696
I6164
sS'2'
p697
I229
sS'params'
p698
I1318
sS'constants'
p699
I640
sS'mmmdd'
p700
I7618
sS'realization'
p701
I2442
sS'formated'
p702
I7393
sS'structures'
p703
I3497
sS'slashes'
p704
I4870
sS'proving'
p705
I7606
sS'interpolate/extrapolate'
p706
I4959
sS'padding'
p707
I4867
sS'ingres'
p708
I3535
sS'oracle_sid'
p709
I7724
sS'representing'
p710
I601
sS'agregate'
p711
I4488
sS'future'
p712
I1517
sS'proactive'
p713
I7170
sS'alphanumerical'
p714
I7659
sS'addressing'
p715
I7739
sS'sal'
p716
I7190
sS'ifnull'
p717
I2129
sS'turned'
p718
I4416
sS'locations'
p719
I2514
sS'say'
p720
I3818
sS'sas'
p721
I1135
sS'sap'
p722
I5656
sS'from/to'
p723
I5095
sS'aproach'
p724
I7691
sS'object_id'
p725
I1533
sS'pg_dump'
p726
I5490
sS'take'
p727
I780
sS'destroy'
p728
I4710
sS'longvarchar'
p729
I6909
sS'altered'
p730
I6514
sS'opposite'
p731
I1461
sS'buffer'
p732
I1997
sS'paged'
p733
I6730
sS'compress'
p734
I3357
sS'sqlquery'
p735
I4946
sS'printed'
p736
I5391
sS'inserted'
p737
I98
sS'pages'
p738
I2068
sS'textarea'
p739
I7645
sS'text/varchar'
p740
I5495
sS'average'
p741
I493
sS'sale'
p742
I2346
sS'ways'
p743
I1650
sS'refining'
p744
I7730
sS'salt'
p745
I6676
sS'accented'
p746
I1213
sS'syle'
p747
I7056
sS'datetime'
p748
I410
sS'inconsistent'
p749
I4140
sS"'timestamp"
p750
I5344
sS'slot'
p751
I2912
sS'slow'
p752
I360
sS'transact'
p753
I2577
sS'mydate'
p754
I4085
sS'dynamodb'
p755
I2263
sS'going'
p756
I2307
sS'result-sets'
p757
I7207
sS'efficently'
p758
I2517
sS'directed'
p759
I4620
sS'dissimilar'
p760
I2694
sS'windowed'
p761
I5835
sS're-writing'
p762
I5366
sS'monthname'
p763
I1131
sS"'colmunname"
p764
I2801
sS'prefixing'
p765
I6261
sS'nolock'
p766
I3791
sS'tranposing'
p767
I5255
sS'prime'
p768
I1664
sS'resource'
p769
I4317
sS'settings'
p770
I6644
sS'occurencies'
p771
I4077
sS'sub-queries'
p772
I3254
sS'where'
p773
I99
sS'concated'
p774
I6648
sS'datatables'
p775
I5415
sS'persian'
p776
I6933
sS'impressions'
p777
I7508
sS'refreshes'
p778
I5713
sS'number/year'
p779
I5343
sS'`where`'
p780
I7718
sS'sites'
p781
I7208
sS'percentiles'
p782
I2599
sS'affecting'
p783
I3409
sS'scoring'
p784
I5559
sS'procedure..'
p785
I4246
sS'vertical'
p786
I1365
sS'logins'
p787
I3418
sS'screen'
p788
I5294
sS'suppresses'
p789
I2640
sS'analyzer'
p790
I6288
sS'spark'
p791
I1660
sS'many'
p792
I402
sS'deduction'
p793
I3131
sS's'
p794
I444
sS'paramter'
p795
I2734
sS'expression'
p796
I783
sS'yearly'
p797
I4425
sS'ora-00904'
p798
I4776
sS'filesort'
p799
I4362
sS'sccm'
p800
I6877
sS'anti'
p801
I7624
sS'am/pm'
p802
I1915
sS'supervisor'
p803
I3397
sS'sp_spaceused'
p804
I5975
sS'seeding'
p805
I5607
sS'ecpg'
p806
I5333
sS'combines'
p807
I3733
sS'smalldatetime'
p808
I3758
sS'stretch'
p809
I6878
sS'tranpose'
p810
I7482
sS'locally'
p811
I544
sS'exprssion'
p812
I3318
sS'combined'
p813
I2235
sS'hibernate/jpa'
p814
I3072
sS'enable'
p815
I1672
sS'sumifs'
p816
I3897
sS'thousand'
p817
I286
sS'formed'
p818
I2298
sS'readings'
p819
I4087
sS'conditon'
p820
I3968
sS'multirow'
p821
I3394
sS'hashtag'
p822
I3852
sS'former'
p823
I6071
sS'.mwb'
p824
I6222
sS'pls_integer'
p825
I5595
sS'sql-table'
p826
I6577
sS'invoking'
p827
I3136
sS'parse.com'
p828
I1886
sS'oledb'
p829
I4765
sS'concatenation'
p830
I583
sS'cobol'
p831
I1453
sS'ascii'
p832
I3978
sS'binary'
p833
I1737
sS'hostname'
p834
I5686
sS'verifies'
p835
I2964
sS'breakdown'
p836
I3667
sS'assigns'
p837
I4956
sS'utf8'
p838
I5742
sS'structurally'
p839
I2162
sS'allocation'
p840
I2559
sS'constraining'
p841
I5386
sS'edges'
p842
I5005
sS'wired'
p843
I3580
sS'limit/offset'
p844
I7356
sS'wpf'
p845
I3929
sS"'older"
p846
I7377
sS'myqsl'
p847
I5727
sS'weightage'
p848
I7256
sS'tracking'
p849
I2582
sS'undefined'
p850
I3493
sS'non-temporary'
p851
I6802
sS'`success`'
p852
I7072
sS'customized'
p853
I2757
sS'costs'
p854
I3451
sS'\xed\x8a\xb8\xeb\xa6\xac\xea\xb1\xb0'
p855
I7469
sS'creationdate'
p856
I3479
sS'dimension'
p857
I2158
sS'summer'
p858
I7679
sS'nosql'
p859
I2262
sS'being'
p860
I912
sS'rodbc'
p861
I5785
sS'rest'
p862
I2586
sS'summed'
p863
I903
sS'weekly'
p864
I3134
sS'generator'
p865
I4466
sS'subqueries'
p866
I511
sS'lahman'
p867
I5057
sS'actors'
p868
I6269
sS'subqueried'
p869
I2107
sS'around'
p870
I1345
sS'4.65,5,1'
p871
I4793
sS'subform'
p872
I5960
sS'sums'
p873
I398
sS'pos'
p874
I3964
sS'preference'
p875
I4252
sS'world'
p876
I6366
sS'postal'
p877
I3081
sS'parent-child'
p878
I3660
sS'non-clustered'
p879
I3281
sS'colon'
p880
I3355
sS'inter'
p881
I7230
sS'grouping'
p882
I490
sS'datatime'
p883
I4917
sS'case-when'
p884
I5635
sS'conditional'
p885
I735
sS'xmltype'
p886
I2444
sS'tvp'
p887
I6650
sS'supplementary'
p888
I4122
sS'tvf'
p889
I6620
sS'dimensions'
p890
I2087
sS'noob'
p891
I7655
sS'ilike'
p892
I4334
sS'multi-join'
p893
I4302
sS'exit'
p894
I2004
sS'ddl'
p895
I3321
sS'infile'
p896
I1387
sS'restoring'
p897
I5983
sS'refer'
p898
I3177
sS'wp_posts'
p899
I7455
sS'accessing'
p900
I769
sS'scientific'
p901
I5902
sS'power'
p902
I2572
sS'ratios'
p903
I4902
sS'dbms_output.put_line'
p904
I5900
sS'rows/columns'
p905
I7690
sS'isset'
p906
I2422
sS'package'
p907
I643
sS'hierarchal'
p908
I5507
sS'acl'
p909
I7177
sS'neighbor'
p910
I2921
sS'act'
p911
I3548
sS"'or"
p912
I3549
sS'rebuild'
p913
I2488
sS'anothers'
p914
I6931
sS'image'
p915
I893
sS'jasper'
p916
I1619
sS'financial'
p917
I2842
sS'first_value'
p918
I5672
sS'enums'
p919
I7142
sS'hex'
p920
I3437
sS'emacs'
p921
I5365
sS'bubble'
p922
I3381
sS'punctuation'
p923
I3466
sS'complete'
p924
I2290
sS'sequelizejs'
p925
I6654
sS'cloned'
p926
I6683
sS'beginners'
p927
I2585
sS'sub-string'
p928
I5230
sS'with'
p929
I7
sS'pull'
p930
I454
sS'october'
p931
I6589
sS'sqlbase'
p932
I2968
sS'.sql'
p933
I3261
sS'rage'
p934
I7059
sS'dirty'
p935
I4612
sS'groupped'
p936
I7662
sS'month/day'
p937
I5795
sS'trips'
p938
I6474
sS'aa'
p939
I1189
sS'gone'
p940
I4788
sS'ab'
p941
I2721
sS'sqlloader'
p942
I3529
sS'ad'
p943
I1673
sS'exhausted'
p944
I3922
sS'certain'
p945
I354
sS'accents'
p946
I1603
sS'am'
p947
I1836
sS'anti-join'
p948
I6420
sS'an'
p949
I210
sS'aq'
p950
I3707
sS'as'
p951
I58
sS'ar'
p952
I2189
sS'associating'
p953
I5756
sS'at'
p954
I133
sS'denormalize'
p955
I3422
sS'non-correlated'
p956
I4829
sS'self-referential'
p957
I4786
sS'extractvalue'
p958
I6353
sS'2000'
p959
I1472
sS'master/detail'
p960
I6185
sS'dpending'
p961
I6516
sS'unfiltered'
p962
I4442
sS'spatial'
p963
I2811
sS'incomprehensible'
p964
I7580
sS'presenting'
p965
I6655
sS'matchung'
p966
I2336
sS'a1'
p967
I4103
sS'oracle'
p968
I83
sS'a3'
p969
I4105
sS'a2'
p970
I4104
sS'a5'
p971
I5915
sS'a7'
p972
I5917
sS'a6'
p973
I5916
sS'tricky'
p974
I1765
sS'webservice'
p975
I4071
sS'partitioned'
p976
I1425
sS'mask'
p977
I1273
sS'maxvalue'
p978
I6967
sS'mimic'
p979
I4516
sS'mass'
p980
I1207
sS'parallelism'
p981
I6636
sS'prority'
p982
I6421
sS'cpu'
p983
I4233
sS'consider'
p984
I6248
sS'caused'
p985
I1734
sS'wihout'
p986
I7552
sS'charindex'
p987
I3545
sS'on-the-fly'
p988
I6266
sS'causes'
p989
I1791
sS'dsn'
p990
I1853
sS'tx'
p991
I5692
sS'ts'
p992
I5247
sS'to'
p993
I15
sS'th'
p994
I4268
sS'`insert'
p995
I7413
sS'appointment'
p996
I962
sS'returned'
p997
I1068
sS"'partition"
p998
I6209
sS'reader'
p999
I7024
sS'puzzler'
p1000
I6811
sS'interpreting'
p1001
I1376
sS'condition'
p1002
I30
sS'`'
p1003
I2060
sS't2'
p1004
I5629
sS'joined'
p1005
I184
sS't1'
p1006
I1899
sS'large'
p1007
I414
sS'afterevent'
p1008
I6143
sS'sane'
p1009
I4232
sS'small'
p1010
I1583
sS'sails.js'
p1011
I3634
sS'temporaltype.time'
p1012
I6414
sS'gridview'
p1013
I2804
sS'key-preserved'
p1014
I5211
sS'sync'
p1015
I3867
sS'past'
p1016
I1016
sS'displays'
p1017
I1440
sS'pass'
p1018
I55
sS'recalculate'
p1019
I5764
sS'startdate'
p1020
I6031
sS'xor'
p1021
I3104
sS'clock'
p1022
I3340
sS'section'
p1023
I3489
sS'subnodes'
p1024
I7721
sS'method'
p1025
I684
sS'full'
p1026
I212
sS'hash'
p1027
I2779
sS'non-alpha'
p1028
I2461
sS'hours'
p1029
I646
sS'smartest'
p1030
I5808
sS'qtys'
p1031
I6440
sS'uuids'
p1032
I3915
sS'ms-sql'
p1033
I3638
sS'sender'
p1034
I4042
sS'experience'
p1035
I4476
sS'prior'
p1036
I1744
sS'countif'
p1037
I5024
sS'emulator'
p1038
I6384
sS'social'
p1039
I2885
sS'action'
p1040
I2686
sS'elemmatch'
p1041
I7023
sS'accoding'
p1042
I6297
sS'via'
p1043
I637
sS'followed'
p1044
I1300
sS'summations'
p1045
I4044
sS"'if/else"
p1046
I5955
sS'vim'
p1047
I6697
sS'follower'
p1048
I5578
sS'unpredictable'
p1049
I6097
sS'pulls'
p1050
I5694
sS'decrement'
p1051
I6859
sS'select'
p1052
I6
sS'executable'
p1053
I6862
sS'attendance'
p1054
I5910
sS'foxpro'
p1055
I5695
sS'diferents'
p1056
I7630
sS'case/replace'
p1057
I5680
sS'archives'
p1058
I3836
sS'automate'
p1059
I753
sS'6'
p1060
I128
sS'more'
p1061
I154
sS'initiated'
p1062
I4112
sS'company'
p1063
I4176
sS'telephone'
p1064
I4746
sS'sql92'
p1065
I6847
sS'multiset'
p1066
I3432
sS'int_a'
p1067
I7200
sS'cross-dbms'
p1068
I5524
sS'couples'
p1069
I5665
sS'keeping'
p1070
I340
sS'science'
p1071
I7496
sS'installing'
p1072
I7262
sS'autocomplete'
p1073
I3206
sS'resources'
p1074
I2830
sS'learn'
p1075
I5465
sS'male'
p1076
I2209
sS'pick'
p1077
I424
sS'randomizing'
p1078
I5126
sS'prompt'
p1079
I757
sS'to_char'
p1080
I3149
sS'scan'
p1081
I4423
sS'dislikes'
p1082
I5655
sS'accept'
p1083
I633
sS'states'
p1084
I5198
sS'sense'
p1085
I2879
sS'frequtenty'
p1086
I4747
sS'axis'
p1087
I5623
sS'huge'
p1088
I741
sS'respective'
p1089
I5369
sS'xxxx'
p1090
I6113
sS'whitespaces'
p1091
I5252
sS'upto'
p1092
I4348
sS'plans'
p1093
I3442
sS'calulating'
p1094
I2545
sS'resultset'
p1095
I738
sS'mapping'
p1096
I895
sS'nativequery'
p1097
I7597
sS'exisit'
p1098
I5818
sS'waves'
p1099
I3186
sS'lifecycle'
p1100
I1771
sS'transposed'
p1101
I3670
sS"'parent"
p1102
I1681
sS'register'
p1103
I2191
sS'non-key'
p1104
I7554
sS'parameterized'
p1105
I1063
sS'django'
p1106
I181
sS'table-value'
p1107
I6716
sS'fundamental'
p1108
I6524
sS'reshape'
p1109
I6448
sS'geographic'
p1110
I7527
sS'exclusions'
p1111
I6122
sS'checkbox'
p1112
I2407
sS'ite'
p1113
I2917
sS'installed'
p1114
I5725
sS'replies'
p1115
I3014
sS'installer'
p1116
I1843
sS'its'
p1117
I483
sS'termed'
p1118
I6264
sS'date-rows'
p1119
I7001
sS'paramterized'
p1120
I3759
sS'compatibilty'
p1121
I4651
sS'bypass'
p1122
I3070
sS'followers'
p1123
I2799
sS'skipped'
p1124
I7148
sS'procedure/function'
p1125
I6883
sS'thereof'
p1126
I7348
sS'funciton'
p1127
I7110
sS'expresion'
p1128
I3102
sS'everytime'
p1129
I3192
sS'always'
p1130
I1521
sS'troubleshoot'
p1131
I6016
sS'userid'
p1132
I2957
sS'comulative'
p1133
I6922
sS'courses'
p1134
I2663
sS'neccessary'
p1135
I6646
sS'found'
p1136
I677
sS'status'
p1137
I460
sS'numerals'
p1138
I7509
sS'contiguous'
p1139
I1735
sS'reduce'
p1140
I1216
sS'numeric'
p1141
I916
sS'weekno'
p1142
I1574
sS'finish'
p1143
I5557
sS'measurement'
p1144
I6345
sS'operation'
p1145
I566
sS'looop'
p1146
I6961
sS'really'
p1147
I1466
sS'fts'
p1148
I3232
sS'missed'
p1149
I2168
sS'parentcategoryid'
p1150
I7172
sS'misses'
p1151
I6887
sS'offline'
p1152
I5484
sS'occurs'
p1153
I1023
sS'localization'
p1154
I986
sS'positional'
p1155
I6960
sS'qualify'
p1156
I3728
sS'2-dimensional'
p1157
I4397
sS'proxy'
p1158
I2492
sS'tablenames'
p1159
I6633
sS'jdoql'
p1160
I2096
sS'definition'
p1161
I1987
sS'pairs'
p1162
I728
sS'sub-values'
p1163
I7541
sS'retained'
p1164
I7223
sS'positioning'
p1165
I3457
sS'excluding'
p1166
I1388
sS'w'
p1167
I3539
sS'decendants'
p1168
I6303
sS'existential'
p1169
I5220
sS'reversing'
p1170
I2431
sS'vowel'
p1171
I6702
sS'number'
p1172
I193
sS'cfqueryparam'
p1173
I1460
sS'table2.id'
p1174
I4874
sS'equi'
p1175
I3267
sS'matchin'
p1176
I7593
sS'differ'
p1177
I3944
sS'val21'
p1178
I7737
sS'leverage'
p1179
I1499
sS'jet'
p1180
I2668
sS'needed'
p1181
I496
sS'swipe'
p1182
I6497
sS'checkpoint'
p1183
I6992
sS'aa1'
p1184
I4109
sS'aa3'
p1185
I4111
sS'aa2'
p1186
I4110
sS'scalar-valued'
p1187
I7477
sS'20-mar-2015'
p1188
I4583
sS'relationship'
p1189
I426
sS'offset/fetch'
p1190
I3988
sS'immediate'
p1191
I1799
sS'mmmm'
p1192
I6881
sS'consult'
p1193
I5488
sS'hours+mins'
p1194
I6005
sS'serializable'
p1195
I7258
sS'determines'
p1196
I4136
sS'jasperreports'
p1197
I6926
sS'multiplicate'
p1198
I4484
sS'determined'
p1199
I1902
sS'condation'
p1200
I5051
sS'deduping'
p1201
I4733
sS'seaching'
p1202
I2402
sS'row/next'
p1203
I4229
sS'sell'
p1204
I5825
sS'self'
p1205
I1457
sS'e+07'
p1206
I4963
sS'also'
p1207
I571
sS'recognizing'
p1208
I2930
sS'upline'
p1209
I2486
sS'view/query'
p1210
I6703
sS'updlock'
p1211
I6309
sS'brace'
p1212
I3076
sS'play'
p1213
I4187
sS'cloums'
p1214
I7089
sS'perfomance'
p1215
I6628
sS'-normalizing'
p1216
I7700
sS'effecting'
p1217
I3282
sS'unused'
p1218
I2459
sS'especific'
p1219
I7338
sS'plan'
p1220
I1506
sS'cloumn'
p1221
I3021
sS'ticketing'
p1222
I7005
sS'oracle-'
p1223
I6767
sS'deviations'
p1224
I6377
sS'unequal'
p1225
I3551
sS'sometimes'
p1226
I4696
sS'doubts'
p1227
I3225
sS'exp'
p1228
I3748
sS'microsoft'
p1229
I1003
sS'wording'
p1230
I4739
sS'golf'
p1231
I5549
sS'xcode'
p1232
I5593
sS'/with'
p1233
I6404
sS'bookings'
p1234
I4021
sS'session'
p1235
I1510
sS'impact'
p1236
I4391
sS'access'
p1237
I171
sS'indicator'
p1238
I5135
sS'writes'
p1239
I7640
sS'columna'
p1240
I1634
sS'columnb'
p1241
I5530
sS'failed'
p1242
I1307
sS'columnx'
p1243
I7014
sS'factor'
p1244
I5533
sS'columns'
p1245
I66
sS'spoiler'
p1246
I6419
sS'dependent'
p1247
I1316
sS'lastname'
p1248
I2956
sS'synchronization'
p1249
I4789
sS'preparing'
p1250
I2019
sS'dependend'
p1251
I4452
sS'xml/sql'
p1252
I6686
sS'progressive'
p1253
I1851
sS'disregarding'
p1254
I2421
sS'seperated'
p1255
I2148
sS'dissapearing'
p1256
I7187
sS'3d'
p1257
I2986
sS'column1'
p1258
I2063
sS'bytea'
p1259
I1618
sS'column2'
p1260
I2064
sS'manger'
p1261
I5134
sS'set'
p1262
I95
sS'seq'
p1263
I7126
sS'creator'
p1264
I4390
sS'tree'
p1265
I2113
sS'startup'
p1266
I5944
sS'oracle..need'
p1267
I7420
sS'sex'
p1268
I7528
sS'collectively'
p1269
I6558
sS'see'
p1270
I1865
sS'isql'
p1271
I4038
sS'sec'
p1272
I4872
sS'migration'
p1273
I2016
sS'join/union'
p1274
I5926
sS'#'
p1275
I1571
sS'sql-style'
p1276
I5202
sS'movie'
p1277
I4920
sS'currently'
p1278
I2079
sS'liquibase'
p1279
I2354
sS'knowing'
p1280
I1921
sS'identity_insert'
p1281
I6240
sS'xslt'
p1282
I6386
sS'javascript'
p1283
I7237
sS'alphabetical'
p1284
I4487
sS'synchronizing'
p1285
I4347
sS'zend_db_select'
p1286
I3770
sS'selectively'
p1287
I3362
sS'interface'
p1288
I3686
sS'last'
p1289
I338
sS'hyperlink'
p1290
I5746
sS'arraylist'
p1291
I7248
sS'pdo'
p1292
I3518
sS'connection'
p1293
I365
sS'pdf'
p1294
I5832
sS'whole'
p1295
I814
sS'all_constraints'
p1296
I6985
sS'load'
p1297
I1142
sS'geolocation'
p1298
I6284
sS'datediff'
p1299
I182
sS'loan'
p1300
I2732
sS'corresponds'
p1301
I3453
sS'dimensional'
p1302
I3160
sS'agents'
p1303
I4856
sS'consideration'
p1304
I6067
sS'indefinite'
p1305
I5587
sS'semi-random'
p1306
I7168
sS'contraint'
p1307
I5710
sS'monthly'
p1308
I798
sS'tablename'
p1309
I1412
sS't1.id'
p1310
I6845
sS'substraction'
p1311
I4073
sS'squirrel'
p1312
I7249
sS'fire'
p1313
I4460
sS'overloading'
p1314
I7765
sS'representative'
p1315
I5538
sS'formate'
p1316
I3845
sS'handling'
p1317
I1196
sS'uncertain'
p1318
I4075
sS'exponential'
p1319
I5901
sS'enrollment'
p1320
I3249
sS'expanded'
p1321
I6749
sS'existance'
p1322
I3502
sS'optimization'
p1323
I1733
sS'pressed'
p1324
I4976
sS'evaluating'
p1325
I777
sS'formats'
p1326
I2282
sS'drawable'
p1327
I4045
sS'robin'
p1328
I6638
sS'appengine'
p1329
I7326
sS'multi-million'
p1330
I7569
sS'scheduled'
p1331
I1884
sS'invoke-sqlcmd'
p1332
I3194
sS'averaging'
p1333
I2330
sS'calculator'
p1334
I5987
sS'binding'
p1335
I406
sS'mthod'
p1336
I3275
sS'triple'
p1337
I2555
sS'funny'
p1338
I4626
sS'fetching'
p1339
I731
sS'nanosecond'
p1340
I4064
sS'x64'
p1341
I7253
sS'shortel'
p1342
I5468
sS'shorter'
p1343
I4878
sS'read'
p1344
I311
sS'reachable'
p1345
I6789
sS'survey'
p1346
I500
sS'string.format'
p1347
I3900
sS'semi-unique'
p1348
I5341
sS'ctc'
p1349
I4192
sS'alert'
p1350
I5875
sS'viewing'
p1351
I3229
sS'levels'
p1352
I3376
sS'nickname'
p1353
I4244
sS'stack'
p1354
I3382
sS'recent'
p1355
I990
sS'surrogate'
p1356
I4462
sS'concate'
p1357
I6307
sS'picks'
p1358
I6181
sS'person'
p1359
I2705
sS'thats'
p1360
I6929
sS'following-follower'
p1361
I4807
sS'sizes'
p1362
I1932
sS'abbreviation'
p1363
I5351
sS'mysql'
p1364
I4
sS"'field"
p1365
I6157
sS'retrive'
p1366
I3606
sS'n-times'
p1367
I3902
sS'signalr'
p1368
I1450
sS'parents'
p1369
I1591
sS'location'
p1370
I1486
sS'wpdb'
p1371
I3763
sS'relevance'
p1372
I5596
sS'input'
p1373
I839
sS'submissions'
p1374
I3932
sS'qsqlquery'
p1375
I6831
sS'critera'
p1376
I1961
sS'recompile'
p1377
I3169
sS'auto_increment'
p1378
I2246
sS'00:00:00.000'
p1379
I3200
sS'projects'
p1380
I2874
sS'sorting'
p1381
I591
sS'd'
p1382
I3325
sS"concat'ing"
p1383
I5927
sS'yes/no'
p1384
I4228
sS'individuals'
p1385
I1580
sS'yields'
p1386
I2937
sS'suppliers'
p1387
I4027
sS'pertaining'
p1388
I7147
sS'methods'
p1389
I3537
sS'spring'
p1390
I2828
sS'resuts'
p1391
I5357
sS'b1'
p1392
I4106
sS'b2'
p1393
I4107
sS'b3'
p1394
I4108
sS'curious'
p1395
I5360
sS'with-delete'
p1396
I6329
sS'and/or'
p1397
I1362
sS'measurements'
p1398
I6326
sS'benefit'
p1399
I6452
sS'behave'
p1400
I2310
sS'inserting'
p1401
I264
sS'be'
p1402
I277
sS'teradata'
p1403
I1100
sS'bi'
p1404
I6292
sS'forming'
p1405
I2341
sS'br'
p1406
I6387
sS'bs'
p1407
I6742
sS'relating'
p1408
I4536
sS'by'
p1409
I17
sS'sectno'
p1410
I7498
sS'reoccuring'
p1411
I6424
sS'anything'
p1412
I662
sS'unsorted'
p1413
I5634
sS'repair'
p1414
I209
sS'garbage'
p1415
I5315
sS'into'
p1416
I60
sS'recreate'
p1417
I5114
sS'servers'
p1418
I612
sS'appropriate'
p1419
I4845
sS'ints'
p1420
I2510
sS'span'
p1421
I3699
sS'retrieving'
p1422
I946
sS'spending'
p1423
I1233
sS'specifically'
p1424
I5079
sS'custom'
p1425
I1265
sS'odp.net'
p1426
I7378
sS'certification'
p1427
I6028
sS':'
p1428
I11
sS'xpath'
p1429
I2472
sS'fragmented'
p1430
I4819
sS'elsewhere'
p1431
I4273
sS'inches'
p1432
I7227
sS'string_agg'
p1433
I5658
sS'poster'
p1434
I1155
sS'tally'
p1435
I1172
sS'linq'
p1436
I440
sS'server-'
p1437
I2302
sS'manipulate'
p1438
I3444
sS'link'
p1439
I869
sS'datespans'
p1440
I6370
sS'line'
p1441
I432
sS'bltoolkit'
p1442
I7634
sS'posted'
p1443
I1177
sS'geting'
p1444
I4475
sS'up'
p1445
I49
sS'us'
p1446
I5210
sS'paired'
p1447
I5069
sS'un'
p1448
I3601
sS'verification'
p1449
I4408
sS'uk'
p1450
I6988
sS'continuously'
p1451
I2660
sS'non-aggregate'
p1452
I5829
sS'storing'
p1453
I189
sS'natively'
p1454
I4791
sS'relevent'
p1455
I4470
sS'defined'
p1456
I642
sS'subtables'
p1457
I4830
sS'parser'
p1458
I5943
sS'char'
p1459
I1396
sS'chat'
p1460
I1451
sS'graceful'
p1461
I4387
sS'parsed'
p1462
I2894
sS'codes'
p1463
I1831
sS'fixing'
p1464
I5346
sS'invalid'
p1465
I1225
sS'preventing'
p1466
I2961
sS'retrival'
p1467
I2070
sS'coded'
p1468
I5804
sS'revision'
p1469
I2094
sS'elements'
p1470
I102
sS'checkident'
p1471
I4156
sS'historization'
p1472
I6009
sS'linq-to-sql'
p1473
I4926
sS'string-match'
p1474
I1288
sS'sides'
p1475
I5328
sS'ago'
p1476
I1969
sS'date_time'
p1477
I7139
sS'algorithm'
p1478
I1501
sS'unmatch'
p1479
I3205
sS'age'
p1480
I1581
sS'holes'
p1481
I4132
sS'datas'
p1482
I3853
sS'enrolled'
p1483
I4655
sS'function/procedure'
p1484
I4240
sS'having'
p1485
I586
sS'regex_replace'
p1486
I7343
sS'code'
p1487
I625
sS'partial'
p1488
I428
sS'hashmap'
p1489
I6518
sS'incorporate'
p1490
I5036
sS'scratch'
p1491
I6427
sS'results'
p1492
I23
sS'existing'
p1493
I610
sS'toggle'
p1494
I3201
sS'semicolons'
p1495
I7073
sS'unmatched'
p1496
I3220
sS'flashback'
p1497
I1689
sS'send'
p1498
I2925
sS'uniqueness'
p1499
I2280
sS'visitor'
p1500
I7091
sS'hints'
p1501
I3426
sS'sent'
p1502
I5307
sS'uploaded'
p1503
I7205
sS'booleans'
p1504
I4562
sS"'not"
p1505
I1356
sS'continues'
p1506
I5083
sS'pagination'
p1507
I1290
sS'mixing'
p1508
I1740
sS'addwithvalue'
p1509
I6545
sS'ending'
p1510
I1243
sS'categories'
p1511
I1174
sS'.99'
p1512
I4981
sS'magic'
p1513
I1680
sS'fewer'
p1514
I5385
sS'try'
p1515
I1049
sS'date_part'
p1516
I334
sS'race'
p1517
I2606
sS'no-value'
p1518
I2794
sS'alphanumeric'
p1519
I2167
sS'imply'
p1520
I7280
sS'video'
p1521
I7468
sS'enclosed'
p1522
I5959
sS'dynamics'
p1523
I6482
sS'odd'
p1524
I351
sS'index'
p1525
I419
sS'date_sub'
p1526
I5853
sS'randomise'
p1527
I3994
sS'phonegap'
p1528
I1916
sS'birt'
p1529
I3109
sS'iduser'
p1530
I7245
sS'reporting'
p1531
I291
sS'deviceid'
p1532
I7015
sS'respectively'
p1533
I4621
sS'db_select'
p1534
I4725
sS'punch'
p1535
I4267
sS'len'
p1536
I5067
sS'let'
p1537
I2570
sS'web'
p1538
I2066
sS'ubuntu'
p1539
I4161
sS'clicked'
p1540
I4162
sS'great'
p1541
I6053
sS'rds'
p1542
I5827
sS'receive'
p1543
I4675
sS'involved'
p1544
I4439
sS'date-range'
p1545
I2665
sS'cte'
p1546
I214
sS'resulting'
p1547
I1601
sS'grandchild'
p1548
I4263
sS'derby'
p1549
I604
sS'opinion'
p1550
I4081
sS'{'
p1551
I1711
sS'makes'
p1552
I3864
sS'weekends'
p1553
I2320
sS'involves'
p1554
I2963
sS'ocurrence'
p1555
I3129
sS'sga'
p1556
I4150
sS'tools'
p1557
I5721
sS'zip'
p1558
I1830
sS'manytomany'
p1559
I1919
sS'next'
p1560
I459
sS'duplicate'
p1561
I371
sS'doubling'
p1562
I3039
sS'find_in_set'
p1563
I3284
sS'hiveql'
p1564
I1587
sS'occurred'
p1565
I4175
sS'senario'
p1566
I5934
sS'rubbish'
p1567
I7334
sS'linq2sql'
p1568
I3302
sS'customer'
p1569
I796
sS'per-row'
p1570
I7007
sS'this'
p1571
I219
sS'challenge'
p1572
I1377
sS'clients'
p1573
I2848
sS'sqlmetal'
p1574
I6863
sS'thin'
p1575
I2182
sS'drill'
p1576
I3175
sS'worksheet'
p1577
I2294
sS'fulfill'
p1578
I5371
sS'process'
p1579
I1564
sS'lock'
p1580
I1408
sS'purposes'
p1581
I6205
sS'pieces'
p1582
I853
sS'high'
p1583
I2014
sS'mysql/phpmyadmin'
p1584
I5178
sS'on/off'
p1585
I5349
sS'haversine'
p1586
I6123
sS'2005/8'
p1587
I2765
sS'schemas'
p1588
I2093
sS'usernames'
p1589
I3290
sS'namespace'
p1590
I3986
sS'tableau'
p1591
I2943
sS'delay'
p1592
I3708
sS'blocks'
p1593
I2002
sS'xact_abort'
p1594
I4873
sS'singular'
p1595
I3557
sS'tied'
p1596
I5044
sS'delimiting'
p1597
I6665
sS'tier'
p1598
I5206
sS'ties'
p1599
I525
sS'efficiently'
p1600
I1900
sS'logminer'
p1601
I5789
sS'counter'
p1602
I1820
sS'redundant'
p1603
I2173
sS'element'
p1604
I422
sS'allow'
p1605
I2468
sS'1=1'
p1606
I4855
sS"'total"
p1607
I1277
sS'counted'
p1608
I3408
sS'holds'
p1609
I1722
sS'produces'
p1610
I4797
sS'move'
p1611
I64
sS'negation'
p1612
I5668
sS'produced'
p1613
I4495
sS'comma'
p1614
I245
sS'flopped'
p1615
I3334
sS'perfect'
p1616
I6179
sS'recreating'
p1617
I6395
sS'chosen'
p1618
I4377
sS'inclusion'
p1619
I2864
sS'varies'
p1620
I4178
sS'winners'
p1621
I5962
sS'degrees'
p1622
I7353
sS'2014'
p1623
I1977
sS'2016'
p1624
I6952
sS'2011'
p1625
I5736
sS'2010'
p1626
I2708
sS'2013'
p1627
I2010
sS'2012'
p1628
I718
sS'oreplace'
p1629
I7666
sS'designs'
p1630
I6216
sS'python'
p1631
I3053
sS'docs'
p1632
I6278
sS'separators'
p1633
I2147
sS'realize'
p1634
I4603
sS'refering'
p1635
I1084
sS'sqlclient'
p1636
I7075
sS'multi-statement'
p1637
I5480
sS'merge'
p1638
I1203
sS'truth'
p1639
I7684
sS'dbwritetable'
p1640
I3782
sS'subset'
p1641
I1164
sS'beginner'
p1642
I2462
sS'doing'
p1643
I450
sS'scope_identity'
p1644
I3719
sS'frequence'
p1645
I3899
sS'books'
p1646
I4783
sS'static'
p1647
I1524
sS'pareto'
p1648
I5018
sS'bpel'
p1649
I7678
sS'matrix'
p1650
I1992
sS"'"
p1651
I18
sS'm2m'
p1652
I7308
sS'dbix'
p1653
I4208
sS'sendmail'
p1654
I2479
sS'greedy'
p1655
I5104
sS'`if`'
p1656
I4351
sS'initialize'
p1657
I1252
sS'shortest'
p1658
I6726
sS'spill'
p1659
I4887
sS'could'
p1660
I1776
sS'length'
p1661
I1257
sS'timeslot'
p1662
I4857
sS'repeats'
p1663
I1965
sS'empty_clob'
p1664
I6554
sS'in-operator'
p1665
I6247
sS'owned'
p1666
I3655
sS'fits'
p1667
I3704
sS'occurrences'
p1668
I341
sS'owner'
p1669
I4052
sS'three-way'
p1670
I3958
sS'update_date'
p1671
I6755
sS'paginating'
p1672
I3888
sS'ordering'
p1673
I866
sS'behaves'
p1674
I7459
sS'system'
p1675
I1943
sS'pervasive'
p1676
I4291
sS'all_tab_columns'
p1677
I6354
sS'transcation'
p1678
I7184
sS'misunderstand'
p1679
I6768
sS'cloning'
p1680
I6219
sS'collecting'
p1681
I4235
sS'false'
p1682
I1254
sS'lines'
p1683
I404
sS'hashtags'
p1684
I1567
sS'selectors'
p1685
I5455
sS'clearly'
p1686
I5940
sS'viewed'
p1687
I4341
sS'documents'
p1688
I516
sS'dishes'
p1689
I6338
sS'4000'
p1690
I3816
sS'sql*plus'
p1691
I756
sS'mechanism'
p1692
I4160
sS'sinatra'
p1693
I7339
sS'soap'
p1694
I6893
sS'persistence'
p1695
I5072
sS'accuracy'
p1696
I5611
sS'calculus'
p1697
I6576
sS'orace'
p1698
I6051
sS'`date`'
p1699
I6069
sS'01'
p1700
I6349
sS'male/female'
p1701
I6017
sS'cusor'
p1702
I7361
sS'device'
p1703
I786
sS'mm/yyyy'
p1704
I3116
sS'record-ids'
p1705
I4508
sS'oracle11g'
p1706
I2244
sS'parametrize'
p1707
I5612
sS'placement'
p1708
I4691
sS'date_listed'
p1709
I4581
sS'fullstop'
p1710
I285
sS'non-consecutive'
p1711
I2614
sS'fact'
p1712
I4450
sS'selectmany'
p1713
I5771
sS'dbi'
p1714
I336
sS'dbo'
p1715
I3300
sS'dba'
p1716
I2945
sS'dependant'
p1717
I2243
sS'sub-selects'
p1718
I3773
sS'dbf'
p1719
I7752
sS'bring'
p1720
I273
sS'dbms_job'
p1721
I1668
sS'postcode'
p1722
I2420
sS'dbs'
p1723
I4269
sS"'foo"
p1724
I6866
sS'trivial'
p1725
I5821
sS'principal'
p1726
I3858
sS'redirect'
p1727
I6121
sS'validfrom'
p1728
I2366
sS'posting'
p1729
I3000
sS'unique/distinct'
p1730
I1238
sS':class'
p1731
I4301
sS'should'
p1732
I1098
sS'terminal'
p1733
I3005
sS'entities'
p1734
I2387
sS'getdate'
p1735
I2392
sS'leaderboard'
p1736
I5550
sS'=1'
p1737
I3831
sS'=0'
p1738
I2005
sS'means'
p1739
I1525
sS'=='
p1740
I3547
sS'timeframe'
p1741
I1802
sS'monetdb'
p1742
I2595
sS'acces'
p1743
I4396
sS'tableadapter'
p1744
I6401
sS'day-mon-year'
p1745
I4770
sS'nz-sql'
p1746
I5865
sS'h'
p1747
I5406
sS'validto'
p1748
I2365
sS"'unknown"
p1749
I2610
sS'stuff'
p1750
I1738
sS'temporarily'
p1751
I2476
sS'plsql/sql'
p1752
I7512
sS'frame'
p1753
I4299
sS'correlations'
p1754
I6945
sS'lazy'
p1755
I5113
sS'qty'
p1756
I1796
sS'edition'
p1757
I3873
sS'rlike'
p1758
I2080
sS'server2008'
p1759
I864
sS'column-order-insensitivity'
p1760
I6496
sS'totalprice'
p1761
I4723
sS'server2005'
p1762
I3961
sS'migrations'
p1763
I3678
sS'quickest'
p1764
I4955
sS'email'
p1765
I356
sS'hard-coding'
p1766
I6198
sS'ends'
p1767
I2524
sS'start-stop'
p1768
I7475
sS'interpolate'
p1769
I4471
sS'hierarchial'
p1770
I879
sS'configuration'
p1771
I4766
sS'absentee'
p1772
I4985
sS'restrictions'
p1773
I2314
sS'etc'
p1774
I729
sS'figures'
p1775
I2505
sS'forall'
p1776
I6981
sS'apostrophe'
p1777
I6560
sS'etl'
p1778
I6738
sS'ca'
p1779
I992
sS'cf'
p1780
I4883
sS'dataframe'
p1781
I3722
sS'cd'
p1782
I2249
sS'worksheets'
p1783
I2953
sS'allocated'
p1784
I3025
sS'winning'
p1785
I5536
sS'admin'
p1786
I2958
sS'8.0'
p1787
I2733
sS'8.3'
p1788
I5950
sS'8.4'
p1789
I3794
sS'ungroup'
p1790
I6899
sS'utilizing'
p1791
I3424
sS'recurring'
p1792
I3664
sS'>'
p1793
I746
sS'pair-wise'
p1794
I5376
sS'quarter-end'
p1795
I4026
sS'order/sort'
p1796
I2607
sS'c2'
p1797
I5889
sS'c1'
p1798
I5888
sS"'short"
p1799
I7388
sS"'for"
p1800
I3125
sS'mvc3'
p1801
I5592
sS'even/odd'
p1802
I6036
sS'groupnum'
p1803
I7074
sS'expiration'
p1804
I5957
sS'column-wise'
p1805
I6221
sS'stuffing'
p1806
I4076
sS'stwithin'
p1807
I5563
sS'sqlldr'
p1808
I3252
sS'delaying'
p1809
I6946
sS'site'
p1810
I720
sS'having-clause'
p1811
I7111
sS'hardware'
p1812
I4428
sS'vs'
p1813
I1615
sS'optimistic'
p1814
I4702
sS"'go"
p1815
I5640
sS'android'
p1816
I359
sS'conflicting'
p1817
I2942
sS'dao'
p1818
I6035
sS'upon'
p1819
I2132
sS'parametrized'
p1820
I6415
sS'v2'
p1821
I7009
sS'infinite'
p1822
I1183
sS'php'
p1823
I2609
sS'expand'
p1824
I3055
sS'audit'
p1825
I1625
sS'off'
p1826
I1441
sS'subtree'
p1827
I3464
sS'retreival'
p1828
I6106
sS'patterns'
p1829
I2892
sS'command'
p1830
I851
sS'filesystem'
p1831
I6692
sS'drawing'
p1832
I6884
sS'subgroup'
p1833
I4510
sS'newest'
p1834
I609
sS'restructure'
p1835
I4474
sS'less'
p1836
I2049
sS'poblem'
p1837
I7346
sS'date/times'
p1838
I3506
sS'rooms'
p1839
I831
sS'quotename'
p1840
I2704
sS'date_trunc'
p1841
I4938
sS'nonclustered'
p1842
I5969
sS"'distinct"
p1843
I1097
sS'wed'
p1844
I7026
sS'orphaned'
p1845
I5747
sS'spinner'
p1846
I4205
sS'combine'
p1847
I104
sS'optimising'
p1848
I2252
sS'combing'
p1849
I2940
sS'practise'
p1850
I3188
sS'habtm'
p1851
I3438
sS'checking'
p1852
I556
sS"'run"
p1853
I6325
sS'crud'
p1854
I4629
sS'increases'
p1855
I3461
sS'five'
p1856
I1967
sS'inserts/updates'
p1857
I7518
sS'password'
p1858
I1872
sS'descendant'
p1859
I4987
sS'date_id'
p1860
I7097
sS'queries/join'
p1861
I6162
sS'microblog'
p1862
I7222
sS'explaination'
p1863
I4686
sS'become'
p1864
I5854
sS'replacement'
p1865
I3365
sS'amendment'
p1866
I6603
sS'hardcoded'
p1867
I2220
sS'daylight'
p1868
I2616
sS'jcr/jackrabbit'
p1869
I5399
sS'oddity'
p1870
I7067
sS'choosing'
p1871
I2271
sS'transport'
p1872
I7399
sS'columns/keys'
p1873
I7619
sS'ssrs/sql'
p1874
I6900
sS'avoid'
p1875
I1488
sS'salaries'
p1876
I2880
sS'referential'
p1877
I1985
sS'does'
p1878
I328
sS'schedule'
p1879
I1005
sS'selecting'
p1880
I136
sS'sqlconnection'
p1881
I4715
sS'vs.'
p1882
I2785
sS'stage'
p1883
I2384
sS'asks'
p1884
I3339
sS'infering'
p1885
I4760
sS'insufficient'
p1886
I4455
sS'transitive'
p1887
I5097
sS'revise'
p1888
I3068
sS'software'
p1889
I4363
sS'letters'
p1890
I1739
sS'localdb'
p1891
I7537
sS'dd-mon-yyyy'
p1892
I1147
sS'maxdates-oracle'
p1893
I5497
sS'adoquery'
p1894
I1857
sS'like/contains'
p1895
I5172
sS'suming'
p1896
I6105
sS'pairing'
p1897
I3035
sS'spots'
p1898
I3077
sS'colomn'
p1899
I3199
sS'9.4'
p1900
I3208
sS'9.5'
p1901
I1289
sS'is-a'
p1902
I2502
sS'9.0'
p1903
I6629
sS'9.1'
p1904
I4328
sS'9.2'
p1905
I3947
sS'9.3'
p1906
I3907
sS'function'
p1907
I21
sS'building'
p1908
I1805
sS'overlapping'
p1909
I92
sS'delivery'
p1910
I6940
sS'tutorials'
p1911
I7375
sS'construction'
p1912
I1863
sS'count'
p1913
I28
sS'y/n'
p1914
I4700
sS'compute'
p1915
I26
sS'places'
p1916
I2000
sS'chained'
p1917
I4798
sS'placed'
p1918
I6039
sS'\xc2\xb6'
p1919
I6632
sS'meta'
p1920
I4535
sS'distribution'
p1921
I3196
sS'odds'
p1922
I7188
sS'mco'
p1923
I6268
sS'timespan'
p1924
I3036
sS'int'
p1925
I919
sS'recognize'
p1926
I2466
sS'slowing'
p1927
I5778
sS'ins'
p1928
I5964
sS'sibling'
p1929
I3368
sS'clientdataset'
p1930
I5226
sS'charlist'
p1931
I5122
sS'ing'
p1932
I4370
sS'in`'
p1933
I2951
sS'compared'
p1934
I2403
sS'operating'
p1935
I7484
sS'language-specific'
p1936
I6894
sS'complex-where'
p1937
I7304
sS'compares'
p1938
I3112
sS'details'
p1939
I1627
sS'suppress'
p1940
I5241
sS'relationed'
p1941
I6989
sS'updated_date'
p1942
I7130
sS'repeat'
p1943
I1274
sS'monday'
p1944
I902
sS'changings'
p1945
I7404
sS'sql-how'
p1946
I2979
sS'non-distinct'
p1947
I974
sS'chance'
p1948
I4778
sS'disjunction'
p1949
I2806
sS'exposure'
p1950
I3966
sS'searches'
p1951
I4652
sS'eod'
p1952
I7669
sS'rule'
p1953
I2160
sS'masterpage'
p1954
I4307
sS'searched'
p1955
I3203
sS'questionnaires'
p1956
I7734
sS'splited'
p1957
I3272
sS'aliased'
p1958
I4275
sS'consolidated'
p1959
I5492
sS'saves'
p1960
I1522
sS'cfoutput'
p1961
I6177
sS'timespans'
p1962
I3643
sS'grandparent'
p1963
I1942
sS'oldest'
p1964
I3043
sS'integrity'
p1965
I1986
sS'formating'
p1966
I507
sS'aliases'
p1967
I2452
sS'relationships'
p1968
I1947
sS'votes'
p1969
I3751
sS'prioritized'
p1970
I6257
sS'fixed-length'
p1971
I2103
sS'matlab'
p1972
I3527
sS'worth'
p1973
I4541
sS'alternating'
p1974
I1060
sS'sql-oracle'
p1975
I6639
sS'sellers'
p1976
I3811
sS'replication'
p1977
I1595
sS'summarized'
p1978
I1824
sS'tagging'
p1979
I5154
sS'tickets'
p1980
I5020
sS'backreferenced'
p1981
I5421
sS'cmd'
p1982
I4533
sS'concat_ws'
p1983
I3744
sS'upload'
p1984
I4158
sS'someid'
p1985
I7755
sS'red'
p1986
I5242
sS'starttime'
p1987
I7452
sS'indices'
p1988
I2547
sS'atk4'
p1989
I4037
sS'cms'
p1990
I5339
sS'phones'
p1991
I2678
sS'item/product'
p1992
I6752
sS'xmlagg'
p1993
I2440
sS'machines'
p1994
I3090
sS'established'
p1995
I5911
sS'unpopulated'
p1996
I5626
sS'incompatible'
p1997
I2647
sS'oracle/hibernate'
p1998
I7319
sS'+'
p1999
I752
sS'msql'
p2000
I1070
sS'above'
p2001
I1769
sS'suppose'
p2002
I4961
sS'consisting'
p2003
I6578
sS'told'
p2004
I3162
sS'simultaneously'
p2005
I1908
sS'wrapping'
p2006
I3490
sS'equals'
p2007
I976
sS'placeholder'
p2008
I4309
sS'obtained'
p2009
I6334
sS'non-duplicate'
p2010
I6237
sS'items'
p2011
I457
sS'employees'
p2012
I290
sS'0.33'
p2013
I7415
sS'parse/shred'
p2014
I2646
sS'bitmask'
p2015
I7351
sS'x..if'
p2016
I7303
sS'insensitively'
p2017
I1679
sS'aka'
p2018
I3083
sS'isdate'
p2019
I1081
sS'secure'
p2020
I1051
sS'instr'
p2021
I1860
sS'highly'
p2022
I5279
sS"'row_number"
p2023
I6210
sS'total'
p2024
I176
sS'sql-duplicated'
p2025
I4166
sS'ngrams'
p2026
I5245
sS'year.else'
p2027
I3997
sS'negative'
p2028
I749
sS'substitutions'
p2029
I4414
sS'uniqid'
p2030
I3388
sS'separated'
p2031
I246
sS'nonunique'
p2032
I6103
sS'offer_id'
p2033
I7276
sS'adjacency'
p2034
I2424
sS'award'
p2035
I5458
sS'interaction'
p2036
I7118
sS'blocking'
p2037
I5518
sS'word'
p2038
I517
sS'err'
p2039
I1446
sS'work'
p2040
I331
sS'eclipse'
p2041
I2439
sS'jtable'
p2042
I4094
sS'elegantly'
p2043
I4721
sS'scripting'
p2044
I2589
sS'quintile'
p2045
I5930
sS'session_longops'
p2046
I6316
sS'india'
p2047
I5702
sS'constraint_name'
p2048
I7574
sS'rpad'
p2049
I4411
sS'plist'
p2050
I3971
sS'totaled'
p2051
I2139
sS'recovery'
p2052
I2054
sS'provide'
p2053
I3470
sS'verify'
p2054
I2753
sS'case-sensitivity'
p2055
I3219
sS'iso-8859-1'
p2056
I6356
sS'disappear'
p2057
I6630
sS'interview'
p2058
I6737
sS'patindex'
p2059
I4825
sS'transforming'
p2060
I5253
sS'ladder'
p2061
I4046
sS'after'
p2062
I595
sS'lat'
p2063
I5308
sS'meaningful'
p2064
I4419
sS'occurence'
p2065
I1430
sS'sparql'
p2066
I1331
sS'purging'
p2067
I4069
sS'order'
p2068
I125
sS'office'
p2069
I2861
sS'degrees/minutes/seconds'
p2070
I6430
sS'satisfied'
p2071
I4468
sS'12.0'
p2072
I3234
sS'frequency'
p2073
I1390
sS'6.1'
p2074
I7364
sS'satisfies'
p2075
I1393
sS'dapper'
p2076
I5228
sS'somewhere'
p2077
I4300
sS'albums'
p2078
I7277
sS'50,000'
p2079
I3854
sS'production'
p2080
I4459
sS'precentage'
p2081
I2546
sS'auto-incremented'
p2082
I2761
sS'versus'
p2083
I2285
sS'then'
p2084
I349
sS'them'
p2085
I947
sS'affected'
p2086
I2058
sS'found_rows'
p2087
I7272
sS'safe'
p2088
I3226
sS'autopopulate'
p2089
I5632
sS'break'
p2090
I2531
sS'refactoring'
p2091
I1456
sS'they'
p2092
I2312
sS'bank'
p2093
I3755
sS'one-to-one'
p2094
I2084
sS'left-join'
p2095
I4513
sS'nullable'
p2096
I2157
sS'l'
p2097
I4090
sS'needing'
p2098
I6944
sS'orderdetails'
p2099
I3228
sS'many-on-many'
p2100
I7502
sS'feeds'
p2101
I5850
sS'associative'
p2102
I1931
sS'logs'
p2103
I5045
sS'nested/repeated'
p2104
I5139
sS'dataview.filter'
p2105
I7357
sS'ident_current'
p2106
I6232
sS'hosted'
p2107
I2003
sS'oracle/sql'
p2108
I1411
sS'network'
p2109
I2965
sS'synthesizing'
p2110
I6262
sS'owning'
p2111
I6493
sS'sliding'
p2112
I343
sS'standard'
p2113
I1347
sS'nth'
p2114
I827
sS'appointments'
p2115
I4971
sS'collation'
p2116
I466
sS'detecting'
p2117
I3301
sS'generate_series'
p2118
I2534
sS'recovering'
p2119
I4740
sS'created'
p2120
I908
sS'+-'
p2121
I4654
sS'creates'
p2122
I2438
sS'+1'
p2123
I1327
sS'mvc'
p2124
I3022
sS'refcursor'
p2125
I2126
sS'organize'
p2126
I1629
sS'render'
p2127
I1710
sS'another'
p2128
I103
sS'parametrised'
p2129
I6337
sS'navigator'
p2130
I3833
sS'cartesian'
p2131
I2774
sS'rejects'
p2132
I5541
sS'null/not'
p2133
I6184
sS'10,20,30'
p2134
I5773
sS'mysql/php'
p2135
I2470
sS'rates'
p2136
I3295
sS'observations'
p2137
I3989
sS'vba/sql'
p2138
I6117
sS'grandchildren'
p2139
I2706
sS"'yyyy-mm-dd"
p2140
I6698
sS'dateofentry'
p2141
I2936
sS'oracle-sql'
p2142
I3672
sS'december'
p2143
I6379
sS'keyid'
p2144
I7051
sS'target'
p2145
I2557
sS'binds'
p2146
I1938
sS'historical'
p2147
I692
sS'minus'
p2148
I2367
sS'table-valued'
p2149
I1062
sS'interests'
p2150
I2569
sS'rewrite'
p2151
I1359
sS'respecting'
p2152
I3285
sS'asc/desc'
p2153
I4070
sS'frontend'
p2154
I6689
sS'manner'
p2155
I3111
sS'angularjs'
p2156
I3715
sS'contents'
p2157
I2639
sS'forced'
p2158
I4730
sS'dbms'
p2159
I1659
sS'strength'
p2160
I6171
sS'realm'
p2161
I3085
sS'latter'
p2162
I2311
sS'indexes'
p2163
I381
sS'subjects'
p2164
I3862
sS'non-composite'
p2165
I6330
sS'indexed'
p2166
I1033
sS'correlating'
p2167
I3823
sS'select-statement'
p2168
I3942
sS'completed'
p2169
I3190
sS'optimizer'
p2170
I4072
sS'nodeid'
p2171
I7000
sS'extending'
p2172
I3020
sS'optimized'
p2173
I1706
sS'involving'
p2174
I1413
sS'sql*loader'
p2175
I4984
sS'scripts'
p2176
I681
sS'phase'
p2177
I1772
sS'incomplete'
p2178
I6167
sS'calculated'
p2179
I1019
sS'bracket'
p2180
I4431
sS'wildcard'
p2181
I1552
sS'sun'
p2182
I5965
sS'voting'
p2183
I6672
sS'calculates'
p2184
I4024
sS'reserve'
p2185
I3521
sS"'month"
p2186
I5340
sS'assistnace'
p2187
I5025
sS'can\xc2\xb4t'
p2188
I5610
sS'7.3'
p2189
I2998
sS'keywords'
p2190
I3246
sS'd2'
p2191
I5740
sS'd1'
p2192
I5739
sS'uniques'
p2193
I6374
sS't_number'
p2194
I7347
sS'painfully'
p2195
I5784
sS'a-za-z'
p2196
I4496
sS'implementation'
p2197
I5605
sS'odac'
p2198
I3454
sS'sp_executesql'
p2199
I2591
sS'appended'
p2200
I6712
sS'hrs'
p2201
I2516
sS'non-matches'
p2202
I4432
sS'summarizing'
p2203
I1516
sS'predecessor'
p2204
I2944
sS'do'
p2205
I206
sS'select/from/where'
p2206
I6134
sS'dd'
p2207
I2200
sS'db'
p2208
I339
sS'scalable'
p2209
I1754
sS'preferred'
p2210
I2816
sS'downtime'
p2211
I5510
sS'dw'
p2212
I3884
sS'dt'
p2213
I6343
sS'mycte'
p2214
I5941
sS'keyname'
p2215
I7695
sS'verses'
p2216
I6932
sS'runs'
p2217
I3387
sS'pearson'
p2218
I6613
sS'rows-sql'
p2219
I3666
sS'covering'
p2220
I3564
sS'w/o'
p2221
I2117
sS'1388'
p2222
I7623
sS'emp'
p2223
I3488
sS'cfloop'
p2224
I1284
sS'analytical'
p2225
I1266
sS'rows-as-fields'
p2226
I7247
sS'erroneous'
p2227
I6787
sS'human'
p2228
I1342
sS'w/'
p2229
I380
sS'w.'
p2230
I5254
sS'analytics'
p2231
I1185
sS'depends'
p2232
I201
sS'cursors+union+pivot'
p2233
I4604
sS'projections'
p2234
I6156
sS'optimum'
p2235
I4514
sS'techniques'
p2236
I6381
sS'away'
p2237
I2903
sS'symmetric'
p2238
I3179
sS'unable'
p2239
I1282
sS'props'
p2240
I7244
sS'we'
p2241
I161
sS'terms'
p2242
I2104
sS'maximums'
p2243
I1945
sS'wo'
p2244
I1028
sS'packaged'
p2245
I4534
sS'belongs_to'
p2246
I7750
sS'stdev'
p2247
I5107
sS'packages'
p2248
I2946
sS'received'
p2249
I179
sS'receives'
p2250
I7266
sS'receiver'
p2251
I5029
sS'exceeds'
p2252
I6305
sS'requests'
p2253
I3881
sS'col'
p2254
I1914
sS'tough'
p2255
I5810
sS'abbreviate'
p2256
I5407
sS'index_scan'
p2257
I6075
sS'f03=1'
p2258
I3975
sS'retreive'
p2259
I4764
sS'guid'
p2260
I3482
sS'row_number'
p2261
I1626
sS'<sos>'
p2262
I1
sS'with/without'
p2263
I6797
sS'flexible'
p2264
I5931
sS'families'
p2265
I5456
sS'concerning'
p2266
I6868
sS'applied'
p2267
I2996
sS'row_numbers'
p2268
I5870
sS'sqlselect'
p2269
I6149
sS'reciprocal'
p2270
I5031
sS'air'
p2271
I7226
sS'perticular'
p2272
I2204
sS'applies'
p2273
I4592
sS'aid'
p2274
I2389
sS'property'
p2275
I1244
sS'mistake'
p2276
I2536
sS'cons'
p2277
I4890
sS'sting'
p2278
I2760
sS'skipping'
p2279
I2393
sS'hebrew'
p2280
I3959
sS'perform'
p2281
I1423
sS'couchdb'
p2282
I5447
sS'descend'
p2283
I7697
sS'incorrectly'
p2284
I581
sS'hierarchies'
p2285
I6194
sS'independent'
p2286
I4560
sS'`count'
p2287
I2059
sS'nil'
p2288
I4924
sS'userids'
p2289
I970
sS'hang'
p2290
I6449
sS'hand'
p2291
I3665
sS'producers'
p2292
I6916
sS'avarage'
p2293
I6488
sS'scenario'
p2294
I911
sS'preceeding'
p2295
I4255
sS'ragged'
p2296
I1956
sS'asp.net'
p2297
I3514
sS'many-to-many'
p2298
I713
sS'unpivoting'
p2299
I3483
sS'the'
p2300
I27
sS'tha'
p2301
I2329
sS'unified'
p2302
I5046
sS'quoted'
p2303
I3912
sS'quotes'
p2304
I1939
sS'semi-complex'
p2305
I5652
sS'visualization'
p2306
I3328
sS'family'
p2307
I1296
sS'similarities'
p2308
I7004
sS'builtin'
p2309
I5630
sS'alchemy'
p2310
I7374
sS'belongs'
p2311
I2228
sS'transformed'
p2312
I7145
sS'board'
p2313
I5375
sS'coalescing'
p2314
I7191
sS'insensitive'
p2315
I2769
sS'eatch'
p2316
I2526
sS'filestream'
p2317
I6188
sS'caps'
p2318
I2056
sS'timestampdiff'
p2319
I4745
sS'boxes'
p2320
I2469
sS'mutiple'
p2321
I3662
sS'min/max'
p2322
I2130
sS'disadvantage'
p2323
I4528
sS'pl/sql-'
p2324
I7076
sS'orientdb'
p2325
I1716
sS'sparse'
p2326
I4290
sS'night'
p2327
I5022
sS'security'
p2328
I296
sS'born'
p2329
I2629
sS'flatten'
p2330
I924
sS'confusing'
p2331
I4876
sS'columns/tables'
p2332
I6897
sS'/'
p2333
I429
sS'wso2'
p2334
I7342
sS'asking'
p2335
I1546
sS'denied'
p2336
I7521
sS'participation'
p2337
I5476
sS'sysdate-1/24'
p2338
I7704
sS'third-tier'
p2339
I6509
sS'ora-01843'
p2340
I1762
sS'substitution'
p2341
I4544
sS'post'
p2342
I1795
sS'properties'
p2343
I658
sS'months'
p2344
I1025
sS'numerator'
p2345
I5945
sS'four-way'
p2346
I4117
sS'eight'
p2347
I7235
sS'obs'
p2348
I7675
sS'data-bound'
p2349
I7438
sS'considerations'
p2350
I5444
sS'dilemma'
p2351
I6770
sS'xyz'
p2352
I6050
sS'float'
p2353
I875
sS'bound'
p2354
I1777
sS'balances'
p2355
I2843
sS'balanced'
p2356
I2223
sS'where`value`='
p2357
I6070
sS'strangely'
p2358
I6709
sS'jdbc'
p2359
I1497
sS'compression'
p2360
I2165
sS'segment'
p2361
I6991
sS'truncated'
p2362
I3505
sS'accordingly'
p2363
I2065
sS'way'
p2364
I449
sS'cach\xc3\xa9'
p2365
I4353
sS'sqldatareader'
p2366
I6301
sS'palce'
p2367
I2190
sS'was'
p2368
I1455
sS'lowest'
p2369
I1302
sS'decoded'
p2370
I3610
sS'sqlalchemy'
p2371
I3006
sS'becoming'
p2372
I6765
sS"'remember"
p2373
I2001
sS'deletable'
p2374
I4250
sS'emulates'
p2375
I5659
sS'true'
p2376
I774
sS'reset'
p2377
I1594
sS'absent'
p2378
I4241
sS'week_ref'
p2379
I6066
sS'igniter'
p2380
I6320
sS'maximum'
p2381
I955
sS'maximun'
p2382
I4489
sS'-sql'
p2383
I4456
sS'crystal'
p2384
I1369
sS'mth'
p2385
I6130
sS'faking'
p2386
I6093
sS'clasue'
p2387
I6267
sS'sproc'
p2388
I3354
sS'optimisation'
p2389
I416
sS'mtd'
p2390
I1242
sS'medication'
p2391
I6699
sS'inclusive'
p2392
I3084
sS'statistic'
p2393
I7162
sS'full-text-search'
p2394
I6794
sS'archive'
p2395
I5728
sS'physical'
p2396
I5164
sS'encrypt'
p2397
I6769
sS'refactor'
p2398
I484
sS'inserting/selecting'
p2399
I5124
sS'interested'
p2400
I4183
sS'holding'
p2401
I5755
sS'test'
p2402
I732
sS'nullif'
p2403
I1787
sS'shrink'
p2404
I6352
sS'scored'
p2405
I5259
sS'truncate'
p2406
I1677
sS'notepad'
p2407
I4053
sS'update'
p2408
I242
sS'concurrent'
p2409
I2485
sS'user_group'
p2410
I3239
sS'mysql/postgres'
p2411
I6138
sS'tracked'
p2412
I7105
sS'normally'
p2413
I6333
sS'interval'
p2414
I1221
sS'together'
p2415
I1032
sS'oltp'
p2416
I6939
sS'tinyint'
p2417
I2343
sS'hope'
p2418
I6032
sS'concept'
p2419
I4276
sS'global'
p2420
I2222
sS'table-copy'
p2421
I5954
sS'switches'
p2422
I3195
sS'subclass'
p2423
I6823
sS'sql/oracle'
p2424
I2756
sS'zone'
p2425
I2810
sS'graph'
p2426
I2067
sS'flash'
p2427
I5354
sS'atribute'
p2428
I4596
sS'sub-rows'
p2429
I5583
sS'permanently'
p2430
I861
sS'radgrid'
p2431
I5521
sS'dbcc'
p2432
I4155
sS'division'
p2433
I3308
sS'predicate'
p2434
I1855
sS'terminate'
p2435
I5796
sS'seemingly'
p2436
I6114
sS'dbd'
p2437
I6593
sS'anonymous'
p2438
I4182
sS'entries'
p2439
I113
sS'trouble'
p2440
I3003
sS'presented'
p2441
I3711
sS'altering'
p2442
I3447
sS'turns'
p2443
I1687
sS'gui'
p2444
I7626
sS'uncommitted'
p2445
I6131
sS'p'
p2446
I3687
sS'upper'
p2447
I1339
sS"'version"
p2448
I5806
sS'repetitive'
p2449
I2544
sS'discover'
p2450
I2418
sS"'value2"
p2451
I7729
sS'cost'
p2452
I1995
sS'populating'
p2453
I3598
sS'initialized'
p2454
I5860
sS'appear'
p2455
I2026
sS'assistance'
p2456
I427
sS'rollup'
p2457
I1009
sS'month-day'
p2458
I3260
sS'sequential'
p2459
I886
sS'relational'
p2460
I1103
sS'satisfy'
p2461
I1565
sS'supporting'
p2462
I2919
sS'unsure'
p2463
I2471
sS'apache'
p2464
I2491
sS'adresses'
p2465
I7563
sS'teacher'
p2466
I4646
sS'change'
p2467
I492
sS'sending'
p2468
I1034
sS'transation'
p2469
I4297
sS'exiting'
p2470
I4668
sS'db4o'
p2471
I4840
sS'domains'
p2472
I5707
sS'deliminter'
p2473
I4059
sS'regardless'
p2474
I3575
sS'extra'
p2475
I1158
sS'marked'
p2476
I2293
sS'anagram'
p2477
I5159
sS'quizzes'
p2478
I5811
sS'regex'
p2479
I1536
sS'buttons'
p2480
I2567
sS'coalesce'
p2481
I203
sS'live'
p2482
I1001
sS'waterline'
p2483
I6975
sS'selects'
p2484
I1781
sS'rowversion'
p2485
I7345
sS'club'
p2486
I5232
sS'datetime/timestamp'
p2487
I3142
sS'attribute_name'
p2488
I5577
sS'ibm'
p2489
I2829
sS'car'
p2490
I6259
sS'datetime.now'
p2491
I2303
sS'cat'
p2492
I1410
sS'purge'
p2493
I4731
sS'non-repeating'
p2494
I5283
sS'can'
p2495
I157
sS'subcategories'
p2496
I325
sS'sql-injection'
p2497
I5822
sS'attribute'
p2498
I283
sS'sps'
p2499
I6695
sS'substring'
p2500
I347
sS'weighting'
p2501
I6491
sS'abort'
p2502
I803
sS'refine'
p2503
I1972
sS'exclude'
p2504
I1380
sS'handle'
p2505
I620
sS'occur'
p2506
I2594
sS'comma-delimited'
p2507
I776
sS'redundancy'
p2508
I938
sS'discussion'
p2509
I5403
sS'multipe'
p2510
I2050
sS'write'
p2511
I215
sS',5'
p2512
I5616
sS'criterion'
p2513
I4323
sS',0'
p2514
I5617
sS'sysdba'
p2515
I3953
sS'product'
p2516
I1161
sS'pasting'
p2517
I5028
sS'islands'
p2518
I1593
sS"'pivot"
p2519
I6129
sS'compatibility'
p2520
I1202
sS'values/totalize'
p2521
I3614
sS'5.5'
p2522
I6494
sS'table.column'
p2523
I7449
sS'table/column'
p2524
I309
sS'whenever'
p2525
I2850
sS'exsiting'
p2526
I4906
sS'explicit'
p2527
I3652
sS'typical'
p2528
I7381
sS'tagged'
p2529
I3981
sS'displayed'
p2530
I3675
sS'cols'
p2531
I1206
sS'utilize'
p2532
I6812
sS'brain'
p2533
I4215
sS'statistical'
p2534
I2109
sS'whats'
p2535
I3780
sS'still'
p2536
I941
sS'colb'
p2537
I4405
sS'cola'
p2538
I4404
sS'non-zero'
p2539
I5380
sS'db2'
p2540
I680
sS'curly'
p2541
I3075
sS'arduino'
p2542
I5499
sS'birthdays'
p2543
I3443
sS'forms'
p2544
I2786
sS'window'
p2545
I344
sS'multiline'
p2546
I3560
sS'a.k.a'
p2547
I5748
sS'correspondence'
p2548
I5323
sS'non'
p2549
I930
sS'100,000'
p2550
I1563
sS'manytoone'
p2551
I6588
sS'col2'
p2552
I3768
sS'col3'
p2553
I5379
sS'introduce'
p2554
I2038
sS'col1'
p2555
I3522
sS'scaling'
p2556
I6433
sS'mutliple'
p2557
I4586
sS'half'
p2558
I1092
sS'not'
p2559
I167
sS'now'
p2560
I1228
sS'nor'
p2561
I4931
sS'nos'
p2562
I3784
sS'wont'
p2563
I3796
sS'select/update'
p2564
I6126
sS'january'
p2565
I5754
sS'drop'
p2566
I329
sS'insert-select'
p2567
I1157
sS'access-sql-query'
p2568
I3407
sS"'close"
p2569
I7638
sS'entirely'
p2570
I2700
sS'full-text'
p2571
I4614
sS'em'
p2572
I4157
sS'domain'
p2573
I2437
sS'as-keyword'
p2574
I7522
sS'fired'
p2575
I5745
sS'ee'
p2576
I5437
sS'eg'
p2577
I4283
sS'ef'
p2578
I3684
sS'snapshots'
p2579
I6722
sS'wrap'
p2580
I7178
sS'fires'
p2581
I7088
sS'ex'
p2582
I1694
sS'year'
p2583
I933
sS'operand'
p2584
I3033
sS'naming'
p2585
I2396
sS'calling'
p2586
I549
sS'er'
p2587
I2561
sS'album'
p2588
I5833
sS'shown'
p2589
I3391
sS'accomplish'
p2590
I5861
sS'opened'
p2591
I5882
sS'space'
p2592
I761
sS'defiined'
p2593
I7756
sS'discrepancies'
p2594
I4422
sS'increase'
p2595
I2451
sS'rational'
p2596
I3779
sS'side-by-side'
p2597
I2018
sS'receiving'
p2598
I5952
sS"'dd-mon-rr"
p2599
I7189
sS'shows'
p2600
I2272
sS'rebuilding'
p2601
I1877
sS'cars'
p2602
I5243
sS'args'
p2603
I3150
sS'cart'
p2604
I2520
sS'union..'
p2605
I5838
sS'dependencies'
p2606
I2573
sS'unwanted'
p2607
I2509
sS'obligation'
p2608
I6875
sS'card'
p2609
I3326
sS'care'
p2610
I6750
sS'fixed'
p2611
I2061
sS'selections'
p2612
I2976
sS'transition'
p2613
I6570
sS'512'
p2614
I7362
sS'lambda'
p2615
I3429
sS'pl/pgsql'
p2616
I485
sS'relatioship'
p2617
I2995
sS'1222'
p2618
I6234
sS'variables'
p2619
I1042
sS'cpus'
p2620
I6798
sS'xe'
p2621
I3435
sS'xx'
p2622
I4371
sS'xy'
p2623
I4751
sS'directly'
p2624
I1617
sS'impossible'
p2625
I3677
sS'message'
p2626
I1112
sS'tomorrow'
p2627
I3360
sS'size'
p2628
I225
sS'regr_slope'
p2629
I4395
sS'sheet'
p2630
I2373
sS'silent'
p2631
I628
sS'auto-incremental'
p2632
I7476
sS'yii'
p2633
I2480
sS'weekdays'
p2634
I3166
sS'remotely'
p2635
I5063
sS'checker'
p2636
I5222
sS'decimalvalue'
p2637
I4803
sS"'cross"
p2638
I1477
sS'friend'
p2639
I2967
sS'ora-01861'
p2640
I1763
sS'mostly'
p2641
I2450
sS'that'
p2642
I200
sS"'e+"
p2643
I5519
sS'quad'
p2644
I7030
sS'eliminated'
p2645
I2877
sS'than'
p2646
I155
sS'semantics'
p2647
I7649
sS'related/paired'
p2648
I7407
sS'optimise'
p2649
I3351
sS'mult-table'
p2650
I2803
sS'transferred'
p2651
I7271
sS'accessed'
p2652
I4365
sS'decompose'
p2653
I6526
sS'browser'
p2654
I5064
sS'websql'
p2655
I6513
sS'rowset'
p2656
I4418
sS'surname'
p2657
I3002
sS'remained'
p2658
I4718
sS'dynamically'
p2659
I163
sS'crossover'
p2660
I2023
sS'splitstring'
p2661
I2180
sS'recover'
p2662
I2975
sS'sys.columns'
p2663
I657
sS'numerics'
p2664
I6290
sS'offering'
p2665
I4028
sS'mr.'
p2666
I7394
sS'online'
p2667
I2353
sS'objective'
p2668
I7607
sS'sqlparameter'
p2669
I6838
sS'enddate'
p2670
I6030
sS'begin'
p2671
I2088
sS'nvarchar2'
p2672
I5681
sS'price'
p2673
I906
sS'non-alphanumeric'
p2674
I6119
sS'algebraic'
p2675
I6315
sS'successive'
p2676
I4236
sS']'
p2677
I2150
sS'dropdownlist'
p2678
I6407
sS'forever'
p2679
I1391
sS'achive'
p2680
I3738
sS'mrs'
p2681
I7397
sS'ratio_to_report'
p2682
I7302
sS'clearing'
p2683
I5613
sS'duplication'
p2684
I1489
sS'discoverer'
p2685
I6720
sS'german'
p2686
I6323
sS'email.com'
p2687
I7446
sS'ip-address'
p2688
I7774
sS'fifth'
p2689
I6671
sS'geography'
p2690
I2447
sS'pivots'
p2691
I5651
sS'upgrade'
p2692
I4749
sS'ratio'
p2693
I2154
sS'title'
p2694
I2978
sS'proportion'
p2695
I1994
sS'optimaze'
p2696
I6571
sS'only'
p2697
I101
sS'subfolders'
p2698
I4491
sS'paramdate'
p2699
I6472
sS'taxonomy'
p2700
I7772
sS'<eos>'
p2701
I2
sS'query1'
p2702
I6010
sS'main-'
p2703
I6864
sS'postgress'
p2704
I3817
sS'count/sum'
p2705
I3385
sS'datamapper'
p2706
I1688
sS'ordernumber'
p2707
I6328
sS'postgis'
p2708
I198
sS'query-display'
p2709
I5160
sS'pivot/'
p2710
I6389
sS'physically'
p2711
I3306
sS'attached'
p2712
I4135
sS'materials'
p2713
I6623
sS'colours'
p2714
I5404
sS'3'
p2715
I512
sS'between'
p2716
I32
sS'import'
p2717
I899
sS'ytd'
p2718
I1309
sS'get_results'
p2719
I5846
sS"'streak"
p2720
I6101
sS'transpose'
p2721
I547
sS'unix/epoch'
p2722
I4179
sS'-no'
p2723
I7330
sS'article'
p2724
I3071
sS'installation'
p2725
I629
sS'embedding'
p2726
I6803
sS'database.yml'
p2727
I3984
sS'delete'
p2728
I112
sS'groupby'
p2729
I1205
sS'comes'
p2730
I4153
sS'nearby'
p2731
I4120
sS'solving'
p2732
I4716
sS'madness'
p2733
I5058
sS'recored'
p2734
I7584
sS'decollapse'
p2735
I4354
sS'onupgrade'
p2736
I5876
sS'learning'
p2737
I5347
sS'caret'
p2738
I7410
sS'invert'
p2739
I3342
sS'fm0000'
p2740
I7327
sS'uniq'
p2741
I7295
sS'unsaved'
p2742
I5548
sS'external'
p2743
I2542
sS'anorm'
p2744
I5942
sS"'name"
p2745
I6344
sS'ruby'
p2746
I335
sS'developing'
p2747
I3113
sS'these'
p2748
I1577
sS"'empty"
p2749
I4041
sS'trick'
p2750
I5128
sS'orientation'
p2751
I6891
sS'agnostic'
p2752
I6218
sS'100th'
p2753
I7149
sS'bias'
p2754
I6535
sS'timezone'
p2755
I5567
sS'return'
p2756
I116
sS'datastore'
p2757
I6886
sS'floating'
p2758
I1970
sS'worry'
p2759
I7335
sS'multimple'
p2760
I2825
sS'develop'
p2761
I4687
sS'handled'
p2762
I6087
sS'styled'
p2763
I6260
sS'sql/hql'
p2764
I6486
sS'11.2'
p2765
I4333
sS'intelligently'
p2766
I6918
sS'figuring'
p2767
I7048
sS'epoch'
p2768
I2906
sS'inquiry'
p2769
I4701
sS'lite'
p2770
I5918
sS'document'
p2771
I194
sS'favorited'
p2772
I4133
sS'datepart'
p2773
I2057
sS'closest'
p2774
I524
sS'userdefined'
p2775
I5600
sS'initialization'
p2776
I5769
sS'8000'
p2777
I7299
sS'favorites'
p2778
I4993
sS'validate'
p2779
I4590
sS'ascendants'
p2780
I6074
sS'dotted'
p2781
I7029
sS'parameterised'
p2782
I6719
sS'breeze'
p2783
I1854
sS'extensible'
p2784
I7133
sS'coordinate'
p2785
I2233
sS'datefield'
p2786
I2856
sS'sqlyog'
p2787
I6602
sS'generally'
p2788
I7298
sS'sqliteopenhelper'
p2789
I7532
sS'bitmap'
p2790
I3617
sS"'lookup"
p2791
I7376
sS'touch'
p2792
I790
sS'speed'
p2793
I378
sS'staging'
p2794
I3404
sS'struct'
p2795
I3826
sS'thinking'
p2796
I5921
sS'forumla'
p2797
I1394
sS'mirrored'
p2798
I2974
sS'improvement'
p2799
I4399
sS'true/false'
p2800
I5684
sS'identifing'
p2801
I2550
sS'treatment'
p2802
I7333
sS'versa'
p2803
I2832
sS'9,99'
p2804
I7131
sS'real'
p2805
I2673
sS'rules'
p2806
I1270
sS'repetitions'
p2807
I4606
sS'specifique'
p2808
I4506
sS'early'
p2809
I2151
sS'ce'
p2810
I2256
sS'listening'
p2811
I6331
sS'using'
p2812
I141
sS'execution'
p2813
I1231
sS'dates-'
p2814
I1415
sS'collective'
p2815
I3333
sS'conditons'
p2816
I5237
sS'newid'
p2817
I2465
sS't'
p2818
I1761
sS'callablestatement'
p2819
I6785
sS'output'
p2820
I376
sS'twelve'
p2821
I1024
sS'non-duplicates'
p2822
I3458
sS'apartments'
p2823
I5143
sS'uppercase'
p2824
I2218
sS'driving'
p2825
I6546
sS'duration'
p2826
I494
sS'variably'
p2827
I7450
sS'questionnaire'
p2828
I502
sS'weeknumber'
p2829
I4322
sS'deselect'
p2830
I5436
sS'recorded'
p2831
I3599
sS'status=1'
p2832
I6263
sS'posgresql'
p2833
I768
sS'assembly'
p2834
I4286
sS'business'
p2835
I778
sS'equivalent'
p2836
I909
sS'dating-site-like'
p2837
I4978
sS'str_to_date'
p2838
I3298
sS'throw'
p2839
I2211
sS'comparison'
p2840
I8
sS'supervises'
p2841
I6346
sS'dupliates'
p2842
I3193
sS't2.id'
p2843
I6846
sS'backup'
p2844
I2008
sS'processor'
p2845
I6400
sS'`col`'
p2846
I7688
sS'redshift'
p2847
I1505
sS'unbounded'
p2848
I7099
sS'numerically'
p2849
I6224
sS'rolling'
p2850
I2184
sS'operator'
p2851
I407
sS'first/last'
p2852
I6507
sS'your'
p2853
I1050
sS'lob'
p2854
I4304
sS'log'
p2855
I1428
sS'prepare'
p2856
I848
sS'area'
p2857
I4901
sS'disable/enable'
p2858
I7175
sS'removing'
p2859
I88
sS'arel'
p2860
I3990
sS'nls_date_language'
p2861
I7715
sS'start'
p2862
I473
sS'cats'
p2863
I7544
sS'lov'
p2864
I7101
sS'low'
p2865
I2013
sS'lot'
p2866
I4738
sS'delayed'
p2867
I5258
sS'trying'
p2868
I382
sS'traveled'
p2869
I7493
sS'columnar'
p2870
I956
sS'embedded'
p2871
I4210
sS'foreignkey'
p2872
I6228
sS'default'
p2873
I800
sS'appliance'
p2874
I6957
sS"'_"
p2875
I5920
sS'table_name'
p2876
I1422
sS'define'
p2877
I162
sS'multiplications'
p2878
I7233
sS'describe'
p2879
I2932
sS'moved'
p2880
I2716
sS'sales'
p2881
I747
sS'non-primary'
p2882
I3937
sS'ibatis'
p2883
I2618
sS'timediff'
p2884
I4540
sS'statuses'
p2885
I1996
sS'storage'
p2886
I788
sS'prepend'
p2887
I1784
sS'valid'
p2888
I1292
sS'you'
p2889
I1048
sS'forcing'
p2890
I1195
sS'poor'
p2891
I5501
sS'coloms'
p2892
I6792
sS'delimiters'
p2893
I1530
sS'flattened'
p2894
I6955
sS'peak'
p2895
I3645
sS'coverage'
p2896
I1018
sS'redundancy/duplication'
p2897
I6104
sS'pool'
p2898
I577
sS'fiscal'
p2899
I995
sS'lookups'
p2900
I5761
sS'insertions'
p2901
I2318
sS'non-english'
p2902
I2091
sS'3-5'
p2903
I5826
sS'3-4'
p2904
I7152
sS'strings'
p2905
I1022
sS'surrounded'
p2906
I6801
sS'semantic'
p2907
I7360
sS'pointing'
p2908
I1315
sS'breadth'
p2909
I5816
sS'associcated'
p2910
I5787
sS'splitting'
p2911
I917
sS'month'
p2912
I686
sS'messy'
p2913
I1194
sS'collection-like'
p2914
I3936
sS'batches'
p2915
I4433
sS'referring'
p2916
I2225
sS'equivalence'
p2917
I4861
sS'pricing'
p2918
I3032
sS'-s'
p2919
I7143
sS'nodes'
p2920
I1948
sS'dateformat'
p2921
I2456
sS'very'
p2922
I925
sS'days/months'
p2923
I3038
sS'1-hour'
p2924
I6775
sS'balancing'
p2925
I7312
sS'decide'
p2926
I2131
sS'id-s'
p2927
I2980
sS'--'
p2928
I1447
sS'-1'
p2929
I1964
sS'study'
p2930
I5946
sS'vfpoledb'
p2931
I5696
sS'retun'
p2932
I6597
sS'entires'
p2933
I3221
sS'non-id'
p2934
I6244
sS'searchstring'
p2935
I7578
sS'after_update'
p2936
I2563
sS'snippets'
p2937
I5311
sS'canonical'
p2938
I4633
sS'sql-all'
p2939
I5641
sS"'active"
p2940
I6827
sS'fractional'
p2941
I1467
sS'nant'
p2942
I5682
sS'edited'
p2943
I6294
sS'loose'
p2944
I4814
sS'modify'
p2945
I498
sS'answers'
p2946
I504
sS'initcap'
p2947
I3494
sS'selective'
p2948
I4499
sS'excess'
p2949
I5619
sS'i.e'
p2950
I5187
sS'sql/jpql'
p2951
I2729
sS'trunc'
p2952
I4430
sS'ahead'
p2953
I3781
sS'losses'
p2954
I3857
sS'cross-join'
p2955
I6822
sS'amount'
p2956
I177
sS'arent'
p2957
I1826
sS'permutation'
p2958
I5582
sS'transact/sql'
p2959
I2177
sS'uniquely'
p2960
I5043
sS'invalidate'
p2961
I3903
sS'shuffle'
p2962
I2738
sS'haschildren'
p2963
I5431
sS'v9.1'
p2964
I7462
sS'requiring'
p2965
I5400
sS'returing'
p2966
I7642
sS'vb'
p2967
I3204
sS'put'
p2968
I833
sS'add-on'
p2969
I7050
sS'chunks'
p2970
I4812
sS'read-only'
p2971
I3956
sS'takes'
p2972
I750
sS'answered'
p2973
I6226
sS'probabilities'
p2974
I5844
sS'contains'
p2975
I100
sS'generate'
p2976
I812
sS'odd/even'
p2977
I6479
sS'taken'
p2978
I3439
sS'authorization'
p2979
I6962
sS'containg'
p2980
I3016
sS'fulltext'
p2981
I1072
sS'yyyy-mm-dd'
p2982
I3725
sS'producing'
p2983
I791
sS'gql'
p2984
I6223
sS'accumulated'
p2985
I4358
sS'de-dupe'
p2986
I6423
sS'drupal'
p2987
I3917
sS'reshaping'
p2988
I2612
sS'history'
p2989
I1044
sS'adobe'
p2990
I7641
sS'magento'
p2991
I2192
sS'phrase'
p2992
I3231
sS'1052'
p2993
I7164
sS'spreadsheet'
p2994
I4398
sS'oracle10g'
p2995
I4704
sS'snippet'
p2996
I6300
sS'menus'
p2997
I6382
sS'reject'
p2998
I5424
sS'textview'
p2999
I4421
sS'commodin'
p3000
I7546
sS'powerbuilder'
p3001
I3233
sS'derived'
p3002
I659
sS'n+1'
p3003
I1923
sS'tries'
p3004
I870
sS'horizontal'
p3005
I901
sS'fk'
p3006
I3087
sS'compulsory'
p3007
I6511
sS'fo'
p3008
I2636
sS'a'
p3009
I29
sS'prerequisites'
p3010
I6362
sS'collumn'
p3011
I4003
sS'hsqldb'
p3012
I1200
sS'inline'
p3013
I437
sS'help'
p3014
I323
sS'hierarchy'
p3015
I213
sS'exlude'
p3016
I2328
sS'held'
p3017
I2807
sS'preempt'
p3018
I7082
sS'committed'
p3019
I6473
sS'hell'
p3020
I5078
sS'sqldf'
p3021
I1476
sS'optimisations'
p3022
I7314
sS'actually'
p3023
I4769
sS'absence'
p3024
I4001
sS'systems'
p3025
I7284
sS'food'
p3026
I3777
sS'yy'
p3027
I1526
sS'ys'
p3028
I3305
sS'group/batch'
p3029
I5874
sS'swapping'
p3030
I4998
sS'mariadb/mysql'
p3031
I6153
sS'ifs'
p3032
I1728
sS'sundays'
p3033
I2413
sS'fully'
p3034
I2687
sS'decimal'
p3035
I717
sS'iff'
p3036
I6800
sS'abc.com'
p3037
I6296
sS'multitables'
p3038
I7243
sS'time-frame'
p3039
I7534
sS'referred'
p3040
I5322
sS'heavy'
p3041
I5169
sS'positioned'
p3042
I5207
sS'beyond'
p3043
I2939
sS'datetype'
p3044
I7367
sS'event'
p3045
I2044
sS'buffers'
p3046
I4375
sS'sugarorm'
p3047
I6235
sS'unnatural'
p3048
I6024
sS'since'
p3049
I2994
sS'publish'
p3050
I7296
sS'pivoted'
p3051
I5410
sS'flattening'
p3052
I4200
sS'7'
p3053
I1021
sS'incrementals'
p3054
I3969
sS'targetted'
p3055
I6410
sS'issue'
p3056
I491
sS'asp'
p3057
I1007
sS'timeline'
p3058
I2558
sS'asc'
p3059
I2024
sS'houses'
p3060
I1637
sS'reason'
p3061
I2751
sS'base'
p3062
I631
sS'ase'
p3063
I4002
sS'ask'
p3064
I3164
sS'earliest'
p3065
I2635
sS'bash'
p3066
I3030
sS'activeandroid'
p3067
I2170
sS'statments'
p3068
I5183
sS'utilization'
p3069
I6843
sS'non-sargable'
p3070
I7632
sS'caption'
p3071
I2821
sS'schemata'
p3072
I5790
sS'assign'
p3073
I1067
sS'datamodel'
p3074
I6152
sS'probability'
p3075
I3449
sS'encoding'
p3076
I3960
sS'rails'
p3077
I991
sS'ecommerce'
p3078
I6673
sS'by/count/distinct'
p3079
I5735
sS'co-relate'
p3080
I7703
sS'guaranteeing'
p3081
I5545
sS"'results"
p3082
I4493
sS'identity'
p3083
I265
sS'scheme'
p3084
I1260
sS'comparators'
p3085
I5660
sS'banana'
p3086
I7201
sS'schema'
p3087
I863
sS'selling'
p3088
I6142
sS'multi-aggregate'
p3089
I6444
sS'recursively'
p3090
I1818
sS'`true`'
p3091
I4231
sS'datawarehouse'
p3092
I6917
sS'authors'
p3093
I4134
sS'taxable'
p3094
I6306
sS'alphabets'
p3095
I3919
sS'translation'
p3096
I2221
sS'tfs'
p3097
I2522
sS'jquery'
p3098
I1730
sS'stb'
p3099
I3866
sS'str'
p3100
I4792
sS'dts'
p3101
I6745
sS'linestring'
p3102
I4811
sS'procedural'
p3103
I4983
sS'cross-database'
p3104
I6431
sS'deciding'
p3105
I5618
sS'alongside'
p3106
I4247
sS'randomly'
p3107
I1175
sS'sentences'
p3108
I1444
sS'cast/convert'
p3109
I4384
sS'null'
p3110
I53
sS'vulnerable'
p3111
I849
sS'option'
p3112
I3105
sS'ratings'
p3113
I2348
sS'useless'
p3114
I5779
sS"'type"
p3115
I7008
sS'aliasing'
p3116
I4359
sS'added_date'
p3117
I7129
sS'quote'
p3118
I1349
sS'multilingual'
p3119
I6708
sS'webmatrix/razor'
p3120
I2521
sS'hired'
p3121
I6008
sS'diferent'
p3122
I623
sS'alpha'
p3123
I1604
sS'salary'
p3124
I1560
sS'mobile'
p3125
I3477
sS'clear'
p3126
I3807
sS'popularity'
p3127
I4453
sS'postgre'
p3128
I7470
sS'clean'
p3129
I1448
sS'usual'
p3130
I6279
sS'commas'
p3131
I2433
sS"'as"
p3132
I3870
sS'hasmany'
p3133
I2593
sS'registers'
p3134
I3622
sS'certs'
p3135
I3572
sS'serial/auto'
p3136
I5654
sS"'ad"
p3137
I4729
sS"'ab"
p3138
I2720
sS'hashbytes'
p3139
I2236
sS'parameters'
p3140
I840
sS"'like"
p3141
I20
sS'assertion'
p3142
I7349
sS'ques'
p3143
I6118
sS'xmls'
p3144
I7524
sS'pretty'
p3145
I6669
sS'circle'
p3146
I6318
sS'multi-part'
p3147
I1775
sS'trees'
p3148
I5074
sS'eggs'
p3149
I3821
sS'combinations'
p3150
I1223
sS'during'
p3151
I1169
sS'table1'
p3152
I1463
sS'querying'
p3153
I446
sS'stored'
p3154
I62
sS'recommendations'
p3155
I4447
sS'x'
p3156
I1246
sS'2007/2010'
p3157
I3459
sS'scanning'
p3158
I2847
sS'tsql/mssql'
p3159
I4891
sS'throwing'
p3160
I5956
sS'culture'
p3161
I7696
sS'palindromes'
p3162
I7424
sS'descriptions'
p3163
I2503
sS'close'
p3164
I2333
sS'polymorphic'
p3165
I5249
sS'deploying'
p3166
I2155
sS'sdo_cs.transform'
p3167
I3894
sS'pictures'
p3168
I4249
sS'muliple'
p3169
I724
sS'won'
p3170
I5963
sS'probably'
p3171
I4005
sS'conditions'
p3172
I9
sS'catalogs'
p3173
I1465
sS'last_insert_id'
p3174
I3657
sS'missing'
p3175
I438
sS'unassociated'
p3176
I1239
sS'scalability'
p3177
I7252
sS'rowtype'
p3178
I4357
sS'french'
p3179
I6965
sS'distinguish'
p3180
I4467
sS'mysql/asp'
p3181
I7701
sS'in-clause'
p3182
I5986
sS'both'
p3183
I458
sS'dtp'
p3184
I5329
sS'delimit'
p3185
I5358
sS'database_name'
p3186
I7771
sS'primary-key'
p3187
I7340
sS'sensitive'
p3188
I464
sS'condition2'
p3189
I3625
sS'condition1'
p3190
I3624
sS'liked'
p3191
I4555
sS'format'
p3192
I284
sS'whatever'
p3193
I4303
sS'skips'
p3194
I4982
sS'likes'
p3195
I687
sS'linux'
p3196
I6555
sS'described'
p3197
I3495
sS'stamp'
p3198
I2897
sS'login/logout'
p3199
I7560
sS'maintenance'
p3200
I4008
sS'collected'
p3201
I7520
sS'territory'
p3202
I6701
sS'empty'
p3203
I234
sS'generating'
p3204
I770
sS'888'
p3205
I5551
sS't/sql'
p3206
I2792
sS'0002'
p3207
I6519
sS'regroup'
p3208
I3001
sS'modelling'
p3209
I3347
sS'else'
p3210
I1255
sS'lives'
p3211
I1639
sS'createcriteria'
p3212
I6579
sS'assigning'
p3213
I1433
sS'look'
p3214
I453
sS'guids'
p3215
I3955
sS'nls_lang'
p3216
I2181
sS'while'
p3217
I652
sS'nested/'
p3218
I3550
sS'match'
p3219
I1073
sS'checksum'
p3220
I2853
sS'guide'
p3221
I4559
sS'loop'
p3222
I377
sS'pack'
p3223
I5723
sS'detailed'
p3224
I7369
sS'jpa'
p3225
I390
sS'multi-line'
p3226
I7494
sS'reads'
p3227
I5866
sS'increased'
p3228
I767
sS'upate'
p3229
I4613
sS'grant'
p3230
I2478
sS'belong'
p3231
I2973
sS'django/sql'
p3232
I2600
sS'grand'
p3233
I1648
sS'modification'
p3234
I4799
sS'composition'
p3235
I1751
sS'conflict'
p3236
I1537
sS'interpolation'
p3237
I6170
sS'used'
p3238
I565
sS'temporary'
p3239
I2114
sS'bonus'
p3240
I748
sS'especified'
p3241
I6357
sS'uses'
p3242
I1690
sS'cleaning'
p3243
I2788
sS'chaning'
p3244
I6645
sS'sqlexpress'
p3245
I2782
sS'sha1'
p3246
I7564
sS'15.5'
p3247
I6196
sS'database'
p3248
I134
sS'windowing'
p3249
I5452
sS'segmented'
p3250
I7113
sS'consistency'
p3251
I3706
sS'docker'
p3252
I7106
sS'`select'
p3253
I7279
sS'distances'
p3254
I2446
sS'overflows'
p3255
I7677
sS'quarters'
p3256
I1968
sS'multi-condition'
p3257
I4031
sS'coun'
p3258
I5572
sS'-grab'
p3259
I7538
sS'nvl'
p3260
I1470
sS'$'
p3261
I1562
sS'ormlite'
p3262
I3504
sS'guaranteed'
p3263
I3558
sS'shortcut'
p3264
I2090
sS'colloquial'
p3265
I7155
sS'guarantees'
p3266
I5096
sS'regexp_substr'
p3267
I2744
sS'transformation'
p3268
I2137
sS'...'
p3269
I401
sS'evaluate'
p3270
I950
sS'showing'
p3271
I626
sS'jstl'
p3272
I4356
sS'game'
p3273
I3532
sS'overriding'
p3274
I6155
sS'activex'
p3275
I3278
sS'submission'
p3276
I6023
sS'translates'
p3277
I7558
sS'together..'
p3278
I6451
sS'aggregate/pivot'
p3279
I6731
sS'popular'
p3280
I1876
sS'mathematical'
p3281
I1819
sS'saturdays'
p3282
I2412
sS'creation'
p3283
I2029
sS'some'
p3284
I79
sS'trends'
p3285
I5824
sS'competencies'
p3286
I5002
sS'reconstituted'
p3287
I4417
sS'or/and'
p3288
I6277
sS'describing'
p3289
I6508
sS'warnings'
p3290
I5405
sS'exceeding'
p3291
I6853
sS'conditionally'
p3292
I2230
sS'slash'
p3293
I5098
sS'createddate'
p3294
I5190
sS'minimal'
p3295
I2675
sS'measures'
p3296
I4141
sS'run'
p3297
I666
sS'processing'
p3298
I4349
sS'step'
p3299
I2097
sS'negatives'
p3300
I4254
sS'lasts'
p3301
I4015
sS'feild'
p3302
I7514
sS'subtract'
p3303
I228
sS'mssql'
p3304
I430
sS'integers'
p3305
I1052
sS'ids'
p3306
I672
sS'datasource'
p3307
I578
sS'messaging'
p3308
I1720
sS'ide'
p3309
I7551
sS'block'
p3310
I262
sS'seeing'
p3311
I7095
sS'within'
p3312
I1145
sS'searchs'
p3313
I1973
sS'conditonal'
p3314
I7057
sS'behaving'
p3315
I4337
sS'auto-number'
p3316
I3654
sS'statistics'
p3317
I897
sS'computer'
p3318
I3515
sS'..'
p3319
I1850
sS'vbscript'
p3320
I4382
sS'placing'
p3321
I4319
sS'heroku'
p3322
I1542
sS'opposed'
p3323
I6733
sS'value1'
p3324
I1889
sS'wild-card'
p3325
I6485
sS'registered'
p3326
I719
sS'films'
p3327
I7366
sS'properly'
p3328
I1074
sS'externalizing'
p3329
I5324
sS'newer'
p3330
I4532
sS'russian'
p3331
I2299
sS'injection'
p3332
I2654
sS'denormalized'
p3333
I3668
sS'info'
p3334
I1991
sS'utc'
p3335
I345
sS'persisting'
p3336
I4997
sS'utm'
p3337
I2928
sS'heterogeneous'
p3338
I6141
sS'similar'
p3339
I743
sS'uniqueidentifer'
p3340
I4441
sS'ordered'
p3341
I224
sS'doesn'
p3342
I2619
sS'sharing'
p3343
I3434
sS'ef6'
p3344
I7587
sS'ancestors'
p3345
I5971
sS'polygon'
p3346
I3144
sS'amounts'
p3347
I2435
sS'sp_msforeachdb'
p3348
I3187
sS'nan'
p3349
I6786
sS'b/w'
p3350
I4653
sS'rewriting'
p3351
I1055
sS'application'
p3352
I927
sS'recognition'
p3353
I7742
sS'department'
p3354
I1954
sS'pandas'
p3355
I2797
sS'arithmetic'
p3356
I1953
sS'draw'
p3357
I6057
sS'spectators'
p3358
I4525
sS'calculating'
p3359
I1193
sS'mongodb'
p3360
I1264
sS'visits'
p3361
I3237
sS'eval'
p3362
I7676
sS'as/400'
p3363
I2754
sS'reservation'
p3364
I3689
sS'structure'
p3365
I519
sS'soundex'
p3366
I7039
sS'independently'
p3367
I3641
sS'correlated'
p3368
I1498
sS'e'
p3369
I5546
sS'dvd'
p3370
I2699
sS'required'
p3371
I1283
sS'resolving'
p3372
I6506
sS'decimally'
p3373
I3923
sS'depth'
p3374
I2322
sS'events/year'
p3375
I2351
sS'requires'
p3376
I3835
sS'incrementing'
p3377
I665
sS'evenly'
p3378
I6717
sS'aggregating'
p3379
I1732
sS'ommiting'
p3380
I4550
sS'o/p'
p3381
I5231
sS'go'
p3382
I3222
sS'compact'
p3383
I208
sS'excludes'
p3384
I7003
sS'wizard'
p3385
I6889
sS'excluded'
p3386
I4060
sS'friendly'
p3387
I6199
sS'21-40'
p3388
I1804
sS'rollback'
p3389
I2474
sS'unstructured'
p3390
I4763
sS'for-each'
p3391
I6968
sS'facebook'
p3392
I793
sS'underscore'
p3393
I1303
sS'matrices'
p3394
I7594
sS'exits'
p3395
I3767
sS'datecolumn'
p3396
I5586
sS'positions'
p3397
I2977
sS'button'
p3398
I667
sS'hive'
p3399
I1597
sS'assignments'
p3400
I1507
sS'olap'
p3401
I5071
sS'transposing'
p3402
I4115
sS'deleting'
p3403
I318
sS'enforce'
p3404
I3830
sS'configurations'
p3405
I7692
sS'picker'
p3406
I4097
sS'jump'
p3407
I7087
sS'picked'
p3408
I1301
sS'download'
p3409
I3044
sS'click'
p3410
I809
sS'recur'
p3411
I7083
sS'vales'
p3412
I4420
sS'cell'
p3413
I236
sS'volatile'
p3414
I6774
sS'vb6'
p3415
I4512
sS';'
p3416
I1276
sS'completion'
p3417
I6751
sS'dense_rank'
p3418
I2331
sS'columnwise'
p3419
I6253
sS'vba'
p3420
I1336
sS'vbs'
p3421
I1780
sS'products'
p3422
I907
sS'examining'
p3423
I7600
sS'zipcodes'
p3424
I4587
sS'win'
p3425
I554
sS'manage'
p3426
I4888
sS'boolean'
p3427
I159
sS'mass-replacing'
p3428
I4625
sS'retriving'
p3429
I5801
sS'cloud'
p3430
I4531
sS'unchangeable'
p3431
I4859
sS'diffrence'
p3432
I3702
sS'vehicle'
p3433
I6584
sS'30/60/90'
p3434
I6238
sS'hiding'
p3435
I2814
sS'milliseconds'
p3436
I310
sS'don\xc2\xb4t'
p3437
I6937
sS'optimizing'
p3438
I443
sS'started'
p3439
I2990
sS'becomes'
p3440
I1561
sS'mismatch'
p3441
I3695
sS'visibility'
p3442
I4690
sS'crosses'
p3443
I1613
sS'stayings'
p3444
I3790
sS'averaged'
p3445
I2766
sS'meet'
p3446
I1090
sS'drops'
p3447
I1534
sS'averages'
p3448
I2908
sS'control'
p3449
I755
sS'uncomputed'
p3450
I6819
sS'links'
p3451
I1351
sS'antother'
p3452
I5565
sS'escaped'
p3453
I4049
sS'interescting/overlapping'
p3454
I6583
sS'pulling'
p3455
I2457
sS'distinct/unique'
p3456
I4970
sS'webmatrix'
p3457
I5576
sS'triangle'
p3458
I6079
sS'sql-query'
p3459
I1712
sS'locates'
p3460
I7156
sS'optimised'
p3461
I5912
sS'arrangement'
p3462
I1747
sS'autoincremented'
p3463
I4979
sS'optimiser'
p3464
I4573
sS'comparsion'
p3465
I4627
sS're-use'
p3466
I4339
sS'textboxes'
p3467
I7501
sS'circular'
p3468
I3107
sS'hashed'
p3469
I6694
sS'next-latest'
p3470
I7523
sS'spelling'
p3471
I2297
sS'apostrophes'
p3472
I3924
sS'xmlns'
p3473
I6342
sS'join/group'
p3474
I5734
sS'longest'
p3475
I469
sS'*all*'
p3476
I4383
sS'including'
p3477
I828
sS'referencing'
p3478
I1590
sS'mentioned'
p3479
I3448
sS'converting'
p3480
I1071
sS'sys_c004035569'
p3481
I7489
sS'outer'
p3482
I590
sS'exclusion'
p3483
I2781
sS'temporal'
p3484
I5604
sS'emails'
p3485
I4084
sS'timeinterval'
p3486
I4282
sS'factorial'
p3487
I3998
sS'auto'
p3488
I573
sS"'order"
p3489
I3235
sS'auth'
p3490
I1911
sS'sdcard'
p3491
I6102
sS'subtraction'
p3492
I3082
sS'front'
p3493
I3245
sS'cakephp'
p3494
I1118
sS'masters'
p3495
I4429
sS'magnitude'
p3496
I7153
sS'mode'
p3497
I1407
sS'|'
p3498
I1310
sS'table_b'
p3499
I4684
sS'attachments'
p3500
I4929
sS'inputs'
p3501
I5077
sS'chunk'
p3502
I3127
sS'table/view'
p3503
I6348
sS'inverted'
p3504
I4039
sS'exceeded'
p3505
I3584
sS'separating'
p3506
I822
sS'special'
p3507
I1535
sS'explorer'
p3508
I4330
sS'alegbra'
p3509
I6499
sS'assigments'
p3510
I5244
sS'wich'
p3511
I1579
sS'cause'
p3512
I3138
sS'has_many'
p3513
I2710
sS'multithreading'
p3514
I5991
sS'undo'
p3515
I6505
sS'completely'
p3516
I2689
sS'table_2'
p3517
I7080
sS'table_1'
p3518
I3611
sS'retrived'
p3519
I2313
sS'columname'
p3520
I3065
sS'determining'
p3521
I2092
sS'route'
p3522
I126
sS'childless'
p3523
I3471
sS'mac'
p3524
I2399
sS'timer'
p3525
I6412
sS'times'
p3526
I661
sS'counterpart'
p3527
I4168
sS'23:59:59'
p3528
I7766
sS'hexadecimal'
p3529
I4058
sS'designed'
p3530
I3979
sS'sql/hive'
p3531
I4497
sS'swapped'
p3532
I7268
sS'powerful'
p3533
I6527
sS'unsupported'
p3534
I7127
sS'randomized'
p3535
I4553
sS'to_date'
p3536
I2623
sS'array_agg'
p3537
I4821
sS'quality'
p3538
I5624
sS'management'
p3539
I1757
sS'and/where'
p3540
I6541
sS'2000/2005'
p3541
I3921
sS'relations'
p3542
I2948
sS'attach'
p3543
I3441
sS'attack'
p3544
I3600
sS'widgets'
p3545
I5471
sS'perfectly'
p3546
I7013
sS'final'
p3547
I3746
sS'reseed'
p3548
I5859
sS're-write'
p3549
I4810
sS'configure'
p3550
I2316
sS'multiple-row'
p3551
I6495
sS'exactly'
p3552
I1281
sS'lists'
p3553
I1504
sS"'other"
p3554
I4465
sS'manipulation'
p3555
I1311
sS'fuzzy'
p3556
I3820
sS'updating'
p3557
I386
sS'rss'
p3558
I4925
sS'connect-by'
p3559
I1439
sS'1-20'
p3560
I1803
sS'submitted'
p3561
I4380
sS'providing'
p3562
I4523
sS'clusterpoint'
p3563
I4851
sS'enforced'
p3564
I6140
sS'managment'
p3565
I7313
sS"'one"
p3566
I3316
sS'tabs'
p3567
I5348
sS'julian'
p3568
I3218
sS'unchanged'
p3569
I4438
sS'unpivot'
p3570
I575
sS'need'
p3571
I270
sS'constrained'
p3572
I5851
sS'q'
p3573
I6336
sS'mappings'
p3574
I5885
sS'able'
p3575
I942
sS'battles'
p3576
I3837
sS'instance'
p3577
I1676
sS'issuing'
p3578
I4501
sS'ansi_padding'
p3579
I7709
sS'deposit'
p3580
I6378
sS're-assign'
p3581
I5301
sS'deploy'
p3582
I2867
sS'tab2'
p3583
I7274
sS'tab1'
p3584
I7273
sS'expires'
p3585
I2105
sS'aws'
p3586
I2722
sS'regs'
p3587
I6236
sS'0/1'
p3588
I7423
sS'connected'
p3589
I758
sS'expired'
p3590
I2604
sS'gallery'
p3591
I5200
sS'enumerating'
p3592
I7457
sS'subtracted'
p3593
I4897
sS'consequences'
p3594
I7740
sS'url'
p3595
I2212
sS'eachother'
p3596
I2680
sS'uri'
p3597
I6974
sS'.all'
p3598
I4709
sS'scrambled'
p3599
I2938
sS'xmlelement'
p3600
I1116
sS'snapshot'
p3601
I4190
sS'databases'
p3602
I841
sS'constrain'
p3603
I3977
sS'downline'
p3604
I2487
sS'12c'
p3605
I2085
sS'violation'
p3606
I1381
sS'encrypted'
p3607
I3696
sS'eclipselink'
p3608
I6027
sS'anyway'
p3609
I4868
sS'firstname.lastname'
p3610
I7445
sS'getutcdate'
p3611
I5628
sS'based'
p3612
I110
sS'earned'
p3613
I2506
sS'('
p3614
I120
sS'winner'
p3615
I1367
sS'bases'
p3616
I3637
sS'inherited'
p3617
I3659
sS'equivalents'
p3618
I4034
sS'f01=1'
p3619
I3974
sS'achieve'
p3620
I1647
sS'joing'
p3621
I4507
sS'slows'
p3622
I4092
sS'databse'
p3623
I5395
sS'overall'
p3624
I3139
sS'joint'
p3625
I1951
sS'strpos'
p3626
I910
sS'autoincrementing'
p3627
I4954
sS'tbl'
p3628
I2685
sS'joins'
p3629
I760
sS'storedprocedures'
p3630
I7639
sS'procedures'
p3631
I837
sS'rownum=3'
p3632
I7104
sS'processes'
p3633
I4261
sS'trucks'
p3634
I4030
sS'structuring'
p3635
I3236
sS'processed'
p3636
I6313
sS'contain'
p3637
I1759
sS'grab'
p3638
I881
sS'casted'
p3639
I5435
sS'cognos'
p3640
I5286
sS'multiplying'
p3641
I2156
sS'computed'
p3642
I2100
sS'multi-select'
p3643
I7012
sS'orphan'
p3644
I4148
sS'freeze'
p3645
I815
sS'legacy'
p3646
I4102
sS'reg_exp'
p3647
I7363
sS"'using"
p3648
I6319
sS'stats'
p3649
I3145
sS'adodb'
p3650
I5977
sS'month/year'
p3651
I3512
sS'to_timestamp'
p3652
I6460
sS'lua'
p3653
I3788
sS'written'
p3654
I2429
sS'correctly'
p3655
I1999
sS'masking'
p3656
I3402
sS'neither'
p3657
I4697
sS'comparable'
p3658
I6743
sS'multi-item'
p3659
I7517
sS'importance'
p3660
I4256
sS'2002,2003'
p3661
I3766
sS'buckets'
p3662
I3753
sS'efficiency'
p3663
I1541
sS'key'
p3664
I231
sS'approval'
p3665
I6393
sS'problem'
p3666
I618
sS'hits'
p3667
I3650
sS'limits'
p3668
I5751
sS'coldfusion'
p3669
I655
sS'co-related'
p3670
I3642
sS'ranked'
p3671
I4801
sS'periodic'
p3672
I6721
sS'tuesday'
p3673
I2347
sS'invisible'
p3674
I4163
sS'if/else'
p3675
I3546
sS'm/n'
p3676
I6465
sS'normalisation'
p3677
I6642
sS'addition'
p3678
I4173
sS'quiz'
p3679
I501
sS'slowly'
p3680
I4374
sS'treat'
p3681
I3276
sS'costumers'
p3682
I5463
sS'username'
p3683
I3224
sS'optionally'
p3684
I3559
sS'controlled'
p3685
I784
sS'league'
p3686
I5110
sS'replenishment'
p3687
I6906
sS'tweets'
p3688
I6873
sS'controller'
p3689
I3023
sS'posible'
p3690
I4743
sS'quotation'
p3691
I4519
sS'delimeters'
p3692
I2592
sS'owns'
p3693
I4949
sS'cluase'
p3694
I4761
sS'10gr2'
p3695
I5828
sS'newname'
p3696
I6679
sS'sqlbulkcopy'
p3697
I4734
sS'surface'
p3698
I1883
sS'1-n'
p3699
I1696
sS'capture'
p3700
I2362
sS'hierachical'
p3701
I1746
sS'generic'
p3702
I967
sS'divergences'
p3703
I6595
sS'strange'
p3704
I1869
sS'party'
p3705
I5744
sS'ordinal'
p3706
I4123
sS'http'
p3707
I3822
sS'unconventional'
p3708
I6956
sS'x-axis'
p3709
I5166
sS'appearances'
p3710
I4832
sS'1-2'
p3711
I7282
sS'1-5'
p3712
I7260
sS'effect'
p3713
I1806
sS'frequently'
p3714
I118
sS'//'
p3715
I5897
sS'polymorphism'
p3716
I3829
sS'transaction'
p3717
I1121
sS'reflection'
p3718
I6471
sS'year-'
p3719
I7743
sS'i'
p3720
I67
sS'well'
p3721
I2075
sS'tnsnames.ora'
p3722
I5830
sS'clausule'
p3723
I6358
sS'case-insensitive'
p3724
I3094
sS'modeler'
p3725
I7654
sS'sparksql'
p3726
I7386
sS'restore'
p3727
I3066
sS'accurate'
p3728
I4116
sS'dose'
p3729
I6890
sS'sources'
p3730
I3628
sS'current_timestamp'
p3731
I2777
sS'distant'
p3732
I4336
sS'virtual'
p3733
I5505
sS'skill'
p3734
I6852
sS'realtion'
p3735
I7141
sS'tablea.column1'
p3736
I5390
sS'logged'
p3737
I1849
sS'lookup'
p3738
I820
sS'ravendb'
p3739
I4012
sS'unnest'
p3740
I5414
sS'homework'
p3741
I6435
sS'plsql'
p3742
I570
sS'howto'
p3743
I3363
sS'sql-function'
p3744
I3948
sS'historic'
p3745
I3499
sS'lat/long'
p3746
I4400
sS'unseen'
p3747
I7582
sS'sequencing'
p3748
I6365
sS'immediately'
p3749
I3106
sS'intersection'
p3750
I226
sS'loss'
p3751
I555
sS'necessary'
p3752
I4518
sS'lost'
p3753
I5101
sS'header'
p3754
I644
sS'alternatively'
p3755
I1080
sS'ring'
p3756
I6544
sS'user-defined'
p3757
I2278
sS'xquery'
p3758
I852
sS'payments'
p3759
I1655
sS'xsd'
p3760
I3587
sS'materialized'
p3761
I3421
sS'async'
p3762
I6746
sS'xsi'
p3763
I4923
sS'page'
p3764
I1350
sS'exisiting'
p3765
I3122
sS'twitter'
p3766
I3198
sS'library'
p3767
I1475
sS'a-z'
p3768
I1188
sS'home'
p3769
I7027
sS'master/slave'
p3770
I7753
sS'table/entity'
p3771
I4930
sS'round-robin'
p3772
I2178
sS'first_name'
p3773
I7707
sS'projection'
p3774
I5299
sS'inner-join'
p3775
I4595
sS'overlap'
p3776
I1789
sS'e-mail'
p3777
I4572
sS'textbox'
p3778
I1725
sS'intersections'
p3779
I3456
sS'?'
p3780
I24
sS'limitations'
p3781
I5797
sS'pr'
p3782
I7061
sS'inaccurate'
p3783
I7405
sS'reaching'
p3784
I7681
sS'monetary'
p3785
I2146
sS'expansion'
p3786
I5266
sS'variation'
p3787
I6252
sS'offset'
p3788
I2053
sS'java'
p3789
I1875
sS'latitude/longitude'
p3790
I2929
sS'lat/lng'
p3791
I7202
sS'recognized'
p3792
I4033
sS'compatible'
p3793
I4624
sS'dominion'
p3794
I6072
sS'equally'
p3795
I4564
sS'previously'
p3796
I3501
sS'parameterizing'
p3797
I5933
sS'cummulative'
p3798
I5540
sS'n-n'
p3799
I6565
sS'pervious'
p3800
I7323
sS'backups'
p3801
I1885
sS'strategy'
p3802
I2560
sS'primay'
p3803
I3745
sS'utility'
p3804
I3476
sS'additional'
p3805
I400
sS'lagged'
p3806
I7336
sS'extjs'
p3807
I6108
sS'inner'
p3808
I260
sS"'near"
p3809
I4216
sS'n-1'
p3810
I4219
sS'hr'
p3811
I3361
sS'weight'
p3812
I2896
sS'histogram'
p3813
I2334
sS'dup'
p3814
I7354
sS'hh'
p3815
I2201
sS'hierarchical'
p3816
I764
sS'gain'
p3817
I969
sS'overflow'
p3818
I2868
sS'highest'
p3819
I553
sS'hd'
p3820
I2697
sS'eav'
p3821
I1259
sS'cells'
p3822
I3299
sS'commit'
p3823
I2484
sS'dml'
p3824
I670
sS'regexp_split_to_array'
p3825
I7239
sS'signed'
p3826
I6902
sS'carriage'
p3827
I1056
sS'converted'
p3828
I3838
sS'limit'
p3829
I379
sS'dmx'
p3830
I6777
sS'piece'
p3831
I4772
sS'display'
p3832
I153
sS'left/right'
p3833
I1556
sS'intersects'
p3834
I4566
sS'reservations'
p3835
I3346
sS'universal'
p3836
I6796
sS'twist'
p3837
I2793
sS'partly'
p3838
I6312
sS'columes'
p3839
I6934
sS'functions'
p3840
I889
sS'string/varchar'
p3841
I5777
sS'ingredients'
p3842
I5547
sS'comboboxes'
p3843
I6498
sS'master-detail'
p3844
I7241
sS'ungrouped'
p3845
I4376
sS'onwards'
p3846
I5504
sS'meteor'
p3847
I3329
sS'standardise'
p3848
I7317
sS'star'
p3849
I4754
sS'ssms'
p3850
I4369
sS'stay'
p3851
I2511
sS'rowsource'
p3852
I5843
sS'seperatly'
p3853
I4271
sS'owa_pattern'
p3854
I3159
sS'friends'
p3855
I1880
sS'db/table'
p3856
I5280
sS'sphinx'
p3857
I5383
sS'non-existing'
p3858
I4214
sS'tomcat'
p3859
I2171
sS'blogs'
p3860
I1925
sS'persistent'
p3861
I7250
sS'portion'
p3862
I2364
sS'fieldname'
p3863
I2711
sS'validation'
p3864
I1082
sS'bcp'
p3865
I3475
sS'indirectly'
p3866
I3414
sS"'created"
p3867
I5598
sS'todays'
p3868
I2863
sS'similarity'
p3869
I5542
sS'dynamic'
p3870
I775
sS'consists'
p3871
I4017
sS'whose'
p3872
I921
sS'calculate'
p3873
I435
sS'zero-values'
p3874
I175
sS'presents'
p3875
I6828
sS'calculats'
p3876
I5088
sS'swap'
p3877
I4312
sS'unreferenced'
p3878
I3428
sS'updated'
p3879
I1046
sS'rawquery'
p3880
I5432
sS'misunderstanding'
p3881
I3943
sS'dateadd'
p3882
I499
sS'tablespace'
p3883
I3485
sS'updates'
p3884
I1844
sS'namespaces'
p3885
I2360
sS'filetable'
p3886
I4944
sS"'all"
p3887
I6753
sS'affect'
p3888
I3577
sS'skills'
p3889
I2445
sS'name-value'
p3890
I3754
sS'companies'
p3891
I1227
sS'solution'
p3892
I871
sS'vector'
p3893
I3815
sS'enhance'
p3894
I6291
sS'heading'
p3895
I1929
sS'force'
p3896
I2321
sS'concise'
p3897
I2909
sS'10g'
p3898
I985
sS'w/left'
p3899
I6041
sS'subordinate'
p3900
I3423
sS'implemented'
p3901
I5667
sS'even'
p3902
I373
sS'preferences'
p3903
I5086
sS'iterating'
p3904
I2795
sS'saved'
p3905
I3251
sS'afterupdate'
p3906
I6029
sS'comparision'
p3907
I4882
sS'new'
p3908
I108
sS'tips'
p3909
I2122
sS'update/insert'
p3910
I3880
sS'metadata'
p3911
I1605
sS'10+'
p3912
I4530
sS'never'
p3913
I3091
sS'ors'
p3914
I4435
sS'met'
p3915
I2136
sS'replacements'
p3916
I6651
sS'active'
p3917
I1685
sS'103'
p3918
I3170
sS'100'
p3919
I981
sS'interpret'
p3920
I5974
sS'dry'
p3921
I7010
sS'key/table'
p3922
I6522
sS'tapes'
p3923
I7656
sS'errorexception'
p3924
I3492
sS'ignoring'
p3925
I1950
sS'cross-table'
p3926
I5174
sS'credit'
p3927
I4047
sS'databasename'
p3928
I6425
sS'permit'
p3929
I6585
sS'theres'
p3930
I5831
sS'summarising'
p3931
I5589
sS'group-concat'
p3932
I1181
sS'dd-mmm-yy'
p3933
I6249
sS'serialize'
p3934
I4272
sS'x=1'
p3935
I7032
sS'x=2'
p3936
I7033
sS'county'
p3937
I7287
sS'specifics'
p3938
I6367
sS'undesirable'
p3939
I7100
sS'guests'
p3940
I7583
sS'counts'
p3941
I121
sS'tabulated'
p3942
I2871
sS'paramater'
p3943
I6680
sS'call'
p3944
I1621
sS'calm'
p3945
I7550
sS'calc'
p3946
I3703
sS'type'
p3947
I476
sS'tell'
p3948
I2449
sS'voted'
p3949
I4287
sS'sub-query'
p3950
I375
sS'x=y'
p3951
I3717
sS'composite'
p3952
I1361
sS'pune'
p3953
I5981
sS'warm'
p3954
I6921
sS'semi-colon'
p3955
I3950
sS'aligned'
p3956
I6824
sS'pivoting'
p3957
I1940
sS'room'
p3958
I1212
sS'rights'
p3959
I7436
sS'setup'
p3960
I2693
sS'movies'
p3961
I2696
sS'suggestive'
p3962
I4403
sS'exceptions'
p3963
I3640
sS'root'
p3964
I3463
sS'sqlitedatabase'
p3965
I2598
sS'give'
p3966
I1357
sS'programming'
p3967
I2914
sS'cursors'
p3968
I1835
sS'performace'
p3969
I6557
sS'aging'
p3970
I4907
sS'renumbering'
p3971
I4074
sS'playerid'
p3972
I6736
sS'answer'
p3973
I2006
sS'reindexing'
p3974
I7246
sS'1753'
p3975
I1083
sS'on..'
p3976
I7047
sS'subdirectories'
p3977
I1159
sS'untill'
p3978
I5246
sS'blanks'
p3979
I1528
sS'disassemble'
p3980
I5678
sS'replacing'
p3981
I353
sS'non-group'
p3982
I3663
sS'summarize'
p3983
I948
sS'ora-00979'
p3984
I6997
sS'purchase'
p3985
I2083
sS'attempt'
p3986
I4022
sS'third'
p3987
I1495
sS'automaticly'
p3988
I6548
sS'maintain'
p3989
I1078
sS"'08"
p3990
I675
sS'operate'
p3991
I5048
sS"'03"
p3992
I6818
sS'operations'
p3993
I2022
sS"'.-1"
p3994
I4051
sS'mysql-query'
p3995
I5081
sS'deck'
p3996
I6453
sS'function-based'
p3997
I4529
sS'fifo'
p3998
I4640
sS'tyring'
p3999
I5467
sS'before'
p4000
I794
sS'smallint'
p4001
I2890
sS'position'
p4002
I1287
sS'personal'
p4003
I4561
sS'name/value'
p4004
I7745
sS','
p4005
I166
sS'better'
p4006
I448
sS'differently'
p4007
I2345
sS'persist'
p4008
I4567
sS'weeks'
p4009
I1010
sS'erlang'
p4010
I1887
sS'overcome'
p4011
I5478
sS'maximal'
p4012
I4500
sS'combination'
p4013
I1179
sS'recordcount'
p4014
I6729
sS'9'
p4015
I124
sS'therapy'
p4016
I7307
sS'one'
p4017
I45
sS'hhmmss'
p4018
I6225
sS"'on"
p4019
I5321
sS'grammar'
p4020
I479
sS'10.x'
p4021
I5433
sS'concatanation'
p4022
I7300
sS'subquery'
p4023
I306
sS'went'
p4024
I7768
sS'counts/'
p4025
I5919
sS'side'
p4026
I2361
sS'mean'
p4027
I1280
sS'inserts'
p4028
I1871
sS'autoincremental'
p4029
I7440
sS'24h'
p4030
I1575
sS'itemset'
p4031
I6012
sS'sub-table'
p4032
I1990
sS'clauses'
p4033
I1059
sS'extract'
p4034
I915
sS'backing'
p4035
I6220
sS'unbound'
p4036
I2931
sS'whitespace'
p4037
I1952
sS'restricted'
p4038
I3688
sS'two-level'
p4039
I4279
sS'content'
p4040
I240
sS'generics'
p4041
I6359
sS'debit'
p4042
I4048
sS'dlookup'
p4043
I2888
sS're-arrange'
p4044
I7198
sS'turning'
p4045
I4139
sS'linear'
p4046
I5474
sS'comma-seperated'
p4047
I6735
sS'recursivity'
p4048
I7043
sS'ascending'
p4049
I2859
sS'date-ranges'
p4050
I6674
sS'logging'
p4051
I2564
sS'starts'
p4052
I1842
sS'messages'
p4053
I674
sS'ist'
p4054
I7556
sS'ish'
p4055
I7622
sS'iso'
p4056
I4314
sS'signature'
p4057
I3007
sS'doers'
p4058
I2292
sS'isa'
p4059
I4741
sS'xmlquery'
p4060
I5998
sS'user'
p4061
I533
sS'flask-sqlalchemy'
p4062
I5408
sS'query/400'
p4063
I6094
sS'features'
p4064
I5264
sS'grade'
p4065
I1144
sS'oracles'
p4066
I6503
sS'executions'
p4067
I6619
sS'featured'
p4068
I7071
sS'floors'
p4069
I2802
sS'enumerate'
p4070
I1286
sS'neo4j'
p4071
I1400
sS'payload'
p4072
I6942
sS'camelcase'
p4073
I6641
sS'select-in-select'
p4074
I5234
sS'zeros'
p4075
I2849
sS'draft'
p4076
I6521
sS'adding/removing'
p4077
I7668
sS'outputting'
p4078
I2344
sS'typing'
p4079
I6601
sS'tokens'
p4080
I2111
sS'somewhat'
p4081
I2749
sS'concatination'
p4082
I5573
sS'begins'
p4083
I2613
sS'distance'
p4084
I1000
sS'keyword'
p4085
I1375
sS'bits'
p4086
I3892
sS'older'
p4087
I978
sS'enabled'
p4088
I4440
sS'normalizing'
p4089
I2933
sS'matter'
p4090
I1540
sS'stratified'
p4091
I2992
sS'extracting'
p4092
I934
sS'table/field'
p4093
I3904
sS'compacting'
p4094
I6788
sS'mm-yyyy'
p4095
I1878
sS'mind'
p4096
I6757
sS'mine'
p4097
I7723
sS'non-digits'
p4098
I4543
sS'paramaters'
p4099
I2655
sS'seed'
p4100
I2764
sS'seen'
p4101
I532
sS'seem'
p4102
I2987
sS'mins'
p4103
I3147
sS'seek'
p4104
I5970
sS'tells'
p4105
I7213
sS'columnid'
p4106
I6806
sS'fitting'
p4107
I7324
sS'grabbing/rearranging'
p4108
I1745
sS'newline'
p4109
I2670
sS'xp_cmdshell'
p4110
I7433
sS'regular'
p4111
I782
sS'pentaho'
p4112
I3508
sS'iterate'
p4113
I593
sS'subtotal'
p4114
I4274
sS'many-to-one'
p4115
I3133
sS'inconsistency'
p4116
I6227
sS'exixting'
p4117
I1075
sS'observation'
p4118
I7018
sS'not-exists'
p4119
I4823
sS'dob'
p4120
I5434
sS'doc'
p4121
I5909
sS'consumed'
p4122
I4478
sS'm'
p4123
I940
sS'points'
p4124
I1693
sS'parenthesis'
p4125
I2467
sS'dos'
p4126
I7220
sS'mailing'
p4127
I6298
sS'dot'
p4128
I2787
sS'cross-tab'
p4129
I3481
sS'checks'
p4130
I773
sS'whitelist'
p4131
I6243
sS'speedup'
p4132
I6600
sS'syntax'
p4133
I535
sS'decoding'
p4134
I4101
sS'randomize'
p4135
I5820
sS'null/empty'
p4136
I2554
sS'field2'
p4137
I5368
sS'field3'
p4138
I6383
sS'explain'
p4139
I980
sS'field1'
p4140
I5367
sS'ldap'
p4141
I7192
sS'integrate'
p4142
I6458
sS'folder'
p4143
I1469
sS'group-columns'
p4144
I7195
sS'stop'
p4145
I3037
sS'referance'
p4146
I5127
sS'sub-items'
p4147
I5117
sS'non-exist'
p4148
I5953
sS'comply'
p4149
I7635
sS'bat'
p4150
I5076
sS'chronological'
p4151
I2166
sS'bar'
p4152
I2742
sS'17'
p4153
I6666
sS'fields'
p4154
I385
sS'16'
p4155
I4836
sS'reload'
p4156
I7454
sS'bad'
p4157
I1352
sS'inactive'
p4158
I5555
sS'architecture'
p4159
I4407
sS'counters'
p4160
I3327
sS'flagged'
p4161
I2588
sS'zone`'
p4162
I6151
sS'reference'
p4163
I722
sS'testing'
p4164
I1434
sS'zones'
p4165
I5840
sS'decided'
p4166
I7293
sS'multible'
p4167
I7108
sS'incorporating'
p4168
I5050
sS'subject'
p4169
I3330
sS'02'
p4170
I7473
sS'00'
p4171
I3860
sS'said'
p4172
I928
sS'07'
p4173
I765
sS'05'
p4174
I6461
sS'sorta'
p4175
I6456
sS'08'
p4176
I3962
sS'09'
p4177
I7210
sS'artificial'
p4178
I7112
sS'filename'
p4179
I3319
sS'sorty'
p4180
I7566
sS'simplest'
p4181
I1378
sS'sorts'
p4182
I3250
sS'longitute'
p4183
I5003
sS'attribut'
p4184
I3371
sS'error/mistake'
p4185
I5427
sS'triples'
p4186
I6763
sS'programatically'
p4187
I868
sS'restricting'
p4188
I3484
sS'sortorder'
p4189
I3848
sS"'and"
p4190
I269
sS'modeling'
p4191
I1859
sS'picking'
p4192
I3015
sS'new.address'
p4193
I7456
sS'suggested'
p4194
I3255
sS'0s'
p4195
I5353
sS'against'
p4196
I711
sS'restarting'
p4197
I3585
sS'urls'
p4198
I2436
sS'tablex'
p4199
I7529
sS'appeared'
p4200
I3633
sS'account_id'
p4201
I5871
sS'loader'
p4202
I1788
sS'loaded'
p4203
I4589
sS'tableb'
p4204
I1515
sS'colunm'
p4205
I4446
sS'system_user'
p4206
I7392
sS'codeigniter'
p4207
I1043
sS'basis'
p4208
I799
sS'regenerate'
p4209
I5793
sS'type_name'
p4210
I1778
sS'three'
p4211
I766
sS'particulars'
p4212
I2772
sS'commission'
p4213
I7041
sS'trigger'
p4214
I330
sS'replicate'
p4215
I4310
sS'interest'
p4216
I4426
sS'basic'
p4217
I1322
sS'entered'
p4218
I2839
sS'website'
p4219
I1984
sS'quantities'
p4220
I2370
sS'argument'
p4221
I1895
sS'lpad'
p4222
I4753
sS'aviation'
p4223
I3629
sS'windows-1252'
p4224
I7359
sS'exception'
p4225
I3446
sS'remaining'
p4226
I1633
sS'date/time'
p4227
I2882
sS'near'
p4228
I2927
sS'neat'
p4229
I4673
sS'balance'
p4230
I988
sS'anchor'
p4231
I679
sS'displayorder'
p4232
I3544
sS'seven'
p4233
I6417
sS"'max"
p4234
I4549
sS'iq'
p4235
I4137
sS'ip'
p4236
I3875
sS'is'
p4237
I12
sS'spellings'
p4238
I4542
sS'it'
p4239
I13
sS'ii'
p4240
I3062
sS'sql/sqlite'
p4241
I2934
sS'cant'
p4242
I2791
sS'im'
p4243
I2216
sS'in'
p4244
I34
sS'faked'
p4245
I1035
sS'ie'
p4246
I2966
sS'id'
p4247
I39
sS'sever'
p4248
I1976
sS'if'
p4249
I97
sS'occupied'
p4250
I2296
sS'make'
p4251
I632
sS'ranking-function'
p4252
I7542
sS'*in*'
p4253
I4703
sS'potentially'
p4254
I6564
sS'filtered'
p4255
I1251
sS'lastday-sql'
p4256
I7559
sS'meets'
p4257
I3049
sS'sumation'
p4258
I6239
sS'declaring'
p4259
I2999
sS'differing'
p4260
I4056
sS'ireport'
p4261
I1620
sS'declarative'
p4262
I2463
sS'failing'
p4263
I2627
sS'inherit'
p4264
I7429
sS'practices'
p4265
I3181
sS'netezza'
p4266
I2376
sS'left'
p4267
I259
sS'just'
p4268
I333
sS'sentence'
p4269
I3273
sS'isolate'
p4270
I3729
sS'||'
p4271
I2410
sS'assigned'
p4272
I3656
sS'bandwidth'
p4273
I5304
sS'identify'
p4274
I708
sS'where/and'
p4275
I1971
sS'yes'
p4276
I3586
sS'yet'
p4277
I1856
sS'cfquery'
p4278
I1285
sS'buyers'
p4279
I3812
sS'candidate'
p4280
I2477
sS'infinitely'
p4281
I4492
sS'agile'
p4282
I4035
sS'character'
p4283
I355
sS'dblink'
p4284
I3896
sS'tuples'
p4285
I1235
sS'save'
p4286
I690
sS'trimming'
p4287
I762
sS'egal'
p4288
I5890
sS'reuse'
p4289
I1086
sS'table0'
p4290
I5688
sS'whichever'
p4291
I6851
sS'seperate'
p4292
I1217
sS'opa'
p4293
I3468
sS'background'
p4294
I2481
sS'wanting'
p4295
I3034
sS'performing'
p4296
I439
sS'manual'
p4297
I4068
sS'unnecessary'
p4298
I3621
sS'deptno'
p4299
I5772
sS'deal'
p4300
I2878
sS'formulas'
p4301
I4093
sS'somehow'
p4302
I3810
sS'dead'
p4303
I7589
sS'key/value'
p4304
I4124
sS'invoice'
p4305
I2605
sS'dynamicly'
p4306
I4121
sS'hour/minute'
p4307
I3819
sS'ignore'
p4308
I1027
sS'auditing'
p4309
I3886
sS'dense'
p4310
I810
sS'bigdecimal'
p4311
I337
sS'notification'
p4312
I3063
sS'normal'
p4313
I196
sS'localhost'
p4314
I5731
sS'versioned'
p4315
I4225
sS'subscriptions'
p4316
I299
sS'predicting'
p4317
I7491
sS'translated'
p4318
I1741
sS'dotconnect'
p4319
I3241
sS'join-table'
p4320
I6457
sS'selectable'
p4321
I5265
sS'super'
p4322
I4551
sS"'next"
p4323
I3473
sS'postgresql'
p4324
I90
sS'sub-select'
p4325
I5186
sS"'if"
p4326
I5068
sS'azure'
p4327
I4149
sS"'in"
p4328
I3009
sS'automatically'
p4329
I207
sS'managers'
p4330
I723
sS'cascaded'
p4331
I5009
sS'parsing'
p4332
I1008
sS'down'
p4333
I891
sS'lies'
p4334
I2657
sS'doctrine'
p4335
I1917
sS'querys'
p4336
I3154
sS'initial'
p4337
I860
sS'editor'
p4338
I4004
sS'fraction'
p4339
I5951
sS'timestamped'
p4340
I2448
sS'form'
p4341
I710
sS'analyse'
p4342
I1834
sS'ford'
p4343
I6273
sS'failure'
p4344
I2860
sS'analyst'
p4345
I7636
sS'query2'
p4346
I6011
sS'preview'
p4347
I3841
sS'prevents'
p4348
I5763
sS'temptable'
p4349
I5464
sS'staged'
p4350
I3291
sS'bounds'
p4351
I5396
sS'query-'
p4352
I3603
sS'zeroes'
p4353
I2179
sS'semicolon'
p4354
I823
sS'classic'
p4355
I2815
sS'covert'
p4356
I6568
sS'zend'
p4357
I2035
sS'covers'
p4358
I5834
sS'drive'
p4359
I6396
sS'golang'
p4360
I3824
sS'mulitple'
p4361
I2587
sS'ship'
p4362
I1040
sS'marking'
p4363
I5170
sS'excel'
p4364
I1038
sS'sybase'
p4365
I1980
sS'warehouse'
p4366
I2300
sS'misinterpreted'
p4367
I7197
sS'sec_to_time'
p4368
I5290
sS'sub-groups'
p4369
I5625
sS'diet'
p4370
I7390
sS'id='
p4371
I7612
sS'exported'
p4372
I3474
sS'weekend'
p4373
I3785
sS'happening'
p4374
I4343
sS'phone'
p4375
I4138
sS'assume'
p4376
I4479
sS'sigma'
p4377
I7648
sS'pseudo'
p4378
I5905
sS'daily'
p4379
I1624
sS'postresql'
p4380
I1839
sS'stripping'
p4381
I5814
sS'ignor'
p4382
I5147
sS'cross-listing'
p4383
I4879
sS'`sql`'
p4384
I1544
sS'shop'
p4385
I7732
sS'managed'
p4386
I6635
sS'skip'
p4387
I1861
sS'rownumber'
p4388
I1867
sS'manager'
p4389
I288
sS'informix'
p4390
I2161
sS'retention'
p4391
I6454
sS'depend'
p4392
I4284
sS'technique'
p4393
I2266
sS'father'
p4394
I4904
sS'0'
p4395
I268
sS'marks'
p4396
I616
sS'string'
p4397
I312
sS'qualifying'
p4398
I4643
sS'tns'
p4399
I5282
sS'did'
p4400
I818
sS'ipv6'
p4401
I7391
sS'.csv'
p4402
I5803
sS'cheapest'
p4403
I7486
sS"'before"
p4404
I4886
sS'realtionship'
p4405
I5087
sS'item'
p4406
I1093
sS'userlog'
p4407
I3646
sS'div'
p4408
I7581
sS'profit/loss'
p4409
I7577
sS'round'
p4410
I1401
sS'-oracle'
p4411
I5251
sS'unexpected'
p4412
I2051
sS'dealing'
p4413
I2352
sS'primarykey'
p4414
I3868
sS'majors'
p4415
I4706
sS'erd'
p4416
I5423
sS'adds'
p4417
I2981
sS'deduplication'
p4418
I6280
sS'ssis'
p4419
I1588
sS'ampersand'
p4420
I2215
sS'template'
p4421
I3057
sS'international'
p4422
I6950
sS'filled'
p4423
I582
sS'xml'
p4424
I463
sS'install'
p4425
I4648
sS'maching'
p4426
I7735
sS'stmt'
p4427
I3029
sS'wait'
p4428
I2838
sS'box'
p4429
I2460
sS'mm/dd/yy'
p4430
I4844
sS'shift'
p4431
I4473
sS'bot'
p4432
I5670
sS'simultaneous'
p4433
I3269
sS'bom'
p4434
I6044
sS'suggestion'
p4435
I3793
sS'useful'
p4436
I3153
sS'criterias'
p4437
I2920
sS'passthrough'
p4438
I4881
sS'flexibility'
p4439
I2891
sS'licensing'
p4440
I6436
sS'anouther'
p4441
I1607
sS'sqllite'
p4442
I2287
sS'everybody'
p4443
I7592
sS'dd/mm'
p4444
I3596
sS'analytic'
p4445
I2385
sS'visit'
p4446
I5394
sS'perl'
p4447
I663
sS'scenarios'
p4448
I4451
sS'dbpedia'
p4449
I4406
sS'encode'
p4450
I4986
sS'thru'
p4451
I4114
sS'w/out'
p4452
I1897
sS'appending'
p4453
I2048
sS'acceptable'
p4454
I4833
sS'tandem'
p4455
I2382
sS'capturing'
p4456
I2335
sS'ntile'
p4457
I7633
sS'fly'
p4458
I3244
sS"'does"
p4459
I4898
sS'nextval'
p4460
I4188
sS'avoiding'
p4461
I1417
sS'quoting'
p4462
I4184
sS'non-aggregated'
p4463
I5337
sS'growing'
p4464
I5363
sS'making'
p4465
I1682
sS'arrive'
p4466
I1130
sS'uniqe'
p4467
I7278
sS'nearest'
p4468
I2138
sS'crazy'
p4469
I6586
sS'mongo'
p4470
I3701
sS'startswith'
p4471
I6525
sS'recordid'
p4472
I4458
sS'permutations'
p4473
I1224
sS'confused'
p4474
I1821
sS'agent'
p4475
I2650
sS'sample'
p4476
I434
sS'manytomanyfield'
p4477
I5877
sS'spanning'
p4478
I3705
sS'nvarchar'
p4479
I1395
sS'normalize'
p4480
I1709
sS'charset'
p4481
I7358
sS'reside'
p4482
I6771
sS'till'
p4483
I3359
sS'sunday'
p4484
I1443
sS'foreach'
p4485
I597
sS'pure'
p4486
I1549
sS'map'
p4487
I2887
sS'designer'
p4488
I3509
sS'140'
p4489
I4636
sS'may'
p4490
I638
sS'max'
p4491
I86
sS'membership'
p4492
I1622
sS'create/drop'
p4493
I7232
sS'mad'
p4494
I2308
sS"'user"
p4495
I6551
sS'maybe'
p4496
I3798
sS'fluent'
p4497
I2525
sS'cascade'
p4498
I1170
sS'switch'
p4499
I2358
sS'if-condition'
p4500
I1337
sS'last_value'
p4501
I5673
sS'froeign'
p4502
I6317
sS'unioned'
p4503
I5284
sS'feb'
p4504
I6857
sS'pointed'
p4505
I4000
sS'mytable'
p4506
I6432
sS'entity'
p4507
I3212
sS'differs'
p4508
I5119
sS'view-'
p4509
I2128
sS'consolidating'
p4510
I3013
sS'pointer'
p4511
I6058
sS'case/when'
p4512
I6668
sS'group'
p4513
I172
sS'monitor'
p4514
I3348
sS'interesting'
p4515
I4023
sS't_sql'
p4516
I5690
sS'listing'
p4517
I2127
sS'policy'
p4518
I6060
sS'mail'
p4519
I2926
sS'main'
p4520
I3099
sS'views'
p4521
I1064
sS'subexpression'
p4522
I5993
sS'touching'
p4523
I5182
sS'mismatched'
p4524
I2622
sS'columm'
p4525
I7031
sS'bitmasks'
p4526
I4806
sS'decrementing'
p4527
I3019
sS'xls'
p4528
I2374
sS'profiling'
p4529
I7539
sS'classifying'
p4530
I7590
sS"'slash"
p4531
I7181
sS'conventions'
p4532
I4057
sS'*not*'
p4533
I6478
sS'requesting'
p4534
I5591
sS'3rd'
p4535
I826
sS'threading'
p4536
I5884
sS'interference'
p4537
I4665
sS'formsof'
p4538
I6148
sS'resualt'
p4539
I4009
sS'code-first'
p4540
I4579
sS'sensor'
p4541
I4086
sS'correct'
p4542
I611
sS'indicating'
p4543
I1568
sS'registries'
p4544
I7161
sS'lag'
p4545
I1402
sS'ora-00936'
p4546
I3264
sS'ora-00937'
p4547
I7465
sS'ora-00932'
p4548
I3806
sS'ora-00933'
p4549
I1782
sS'orm'
p4550
I2135
sS'fusion'
p4551
I4777
sS'ora'
p4552
I2152
sS'advance'
p4553
I1592
sS'language'
p4554
I238
sS'plsql-'
p4555
I6487
sS'utl_mail'
p4556
I4366
sS'-245'
p4557
I4582
sS'thing'
p4558
I1253
sS'b=x'
p4559
I7137
sS'crosstab/pivot'
p4560
I4199
sS'think'
p4561
I1707
sS'frequent'
p4562
I3861
sS'first'
p4563
I648
sS'afer'
p4564
I6055
sS'insert..select'
p4565
I5352
sS'seprate'
p4566
I4257
sS'long'
p4567
I781
sS'carry'
p4568
I5753
sS'many-to-may'
p4569
I5208
sS'little'
p4570
I847
sS'workaround'
p4571
I2519
sS'anyone'
p4572
I4177
sS'participated'
p4573
I2159
sS'inefficient'
p4574
I2194
sS'memo'
p4575
I2905
sS'continuous'
p4576
I3248
sS'accurately'
p4577
I4588
sS'blacklist'
p4578
I5439
sS'coefficients'
p4579
I5936
sS'11'
p4580
I3976
sS'10'
p4581
I384
sS'13'
p4582
I1373
sS'12'
p4583
I1105
sS'15'
p4584
I1686
sS'14'
p4585
I6203
sS'bools'
p4586
I4522
sS'1m'
p4587
I4040
sS'18'
p4588
I2533
sS'were'
p4589
I2579
sS'1+'
p4590
I7269
sS'gathering'
p4591
I3336
sS'sp_helptext'
p4592
I3367
sS'topics'
p4593
I2388
sS'rowlock'
p4594
I6484
sS'dash'
p4595
I5848
sS'30-mar-2015'
p4596
I4584
sS'kevin'
p4597
I5531
sS'cassandra'
p4598
I3752
sS'emulating'
p4599
I7689
sS'efficieny'
p4600
I7467
sS'efficient'
p4601
I651
sS'left-outer-join'
p4602
I6254
sS'answering'
p4603
I5729
sS'upgrading'
p4604
I3946
sS'potential'
p4605
I3552
sS'performance'
p4606
I293
sS'modulus'
p4607
I6660
sS'switching'
p4608
I5482
sS'channel'
p4609
I7451
sS'formular'
p4610
I6361
sS'200'
p4611
I4827
sS'trace'
p4612
I6580
sS'roster'
p4613
I1392
sS'track'
p4614
I1066
sS'correlation'
p4615
I6614
sS'paid'
p4616
I2411
sS'sheets'
p4617
I6271
sS'pair'
p4618
I1904
sS'increase/decrease'
p4619
I5674
sS'orderdate'
p4620
I6561
sS'synonym'
p4621
I1792
sS'especially'
p4622
I7283
sS'fills'
p4623
I2528
sS'flat-file'
p4624
I7234
sS'retreive/update'
p4625
I6606
sS'conditionaly'
p4626
I7011
sS'sybase/ansi'
p4627
I2576
sS'yyyy/mm/dd'
p4628
I6004
sS'conditionals'
p4629
I2881
sS'precise'
p4630
I3933
sS'rating'
p4631
I2419
sS'shot'
p4632
I506
sS'show'
p4633
I372
sS'filed'
p4634
I2076
sS'sargable'
p4635
I5585
sS'correcly'
p4636
I2719
sS'threshold'
p4637
I4619
sS'interpretation'
p4638
I4990
sS'label'
p4639
I2727
sS'boundaries'
p4640
I2081
sS'pump'
p4641
I6083
sS'inconsistant'
p4642
I2633
sS'max-min'
p4643
I5132
sS'ranking'
p4644
I1862
sS'jpa/oracle'
p4645
I5460
sS'get'
p4646
I169
sS'contracts'
p4647
I5167
sS'somedate'
p4648
I3771
sS'column-level'
p4649
I6778
sS'nearly'
p4650
I6242
sS'distinctly'
p4651
I2551
sS'conjunction'
p4652
I2805
sS'secondary'
p4653
I3163
sS'median'
p4654
I539
sS'yield'
p4655
I5116
sS'summary'
p4656
I1015
sS'subtype'
p4657
I2482
sS'fts3'
p4658
I6515
sS'declared'
p4659
I1551
sS'onetomany'
p4660
I6111
sS'relative'
p4661
I2746
sS'sean'
p4662
I5056
sS'eliminating'
p4663
I2688
sS'jobs'
p4664
I2651
sS'calendar'
p4665
I960
sS'*full*'
p4666
I1846
sS'date1'
p4667
I2991
sS'satisfying'
p4668
I4670
sS'forecast'
p4669
I3716
sS'oracledb'
p4670
I4292
sS'behind'
p4671
I835
sS'enumerated'
p4672
I6206
sS'geometric'
p4673
I2535
sS'reading'
p4674
I3271
sS'across'
p4675
I123
sS'august'
p4676
I6350
sS'parent'
p4677
I1182
sS'js'
p4678
I2371
sS'condensing'
p4679
I5011
sS'gregorian'
p4680
I6834
sS'non-system'
p4681
I4437
sS'top-rated'
p4682
I7674
sS"'calculated"
p4683
I2123
sS'dates'
p4684
I696
sS'parentheses'
p4685
I3148
sS'mm/dd'
p4686
I4605
sS'configuring'
p4687
I5030
sS'trades'
p4688
I6422
sS'according'
p4689
I19
sS'dated'
p4690
I693
sS'decimals'
p4691
I287
sS'symfony'
p4692
I3312
sS'phpmyadmin'
p4693
I709
sS'forecasting'
p4694
I7650
sS'non-numeric'
p4695
I2941
sS'venues'
p4696
I6341
sS'grants'
p4697
I2854
sS'spans'
p4698
I2637
sS'cancel'
p4699
I4223
sS'considering'
p4700
I1810
sS'unusual'
p4701
I1823
sS'tuning'
p4702
I3743
sS'marc'
p4703
I3151
sS'encryption'
p4704
I2208
sS'mark'
p4705
I1117
sS'attaching'
p4706
I4324
sS'complexquery'
p4707
I4871
sS'distict'
p4708
I5671
sS'shopping'
p4709
I7665
sS'squash'
p4710
I6587
sS'traversal'
p4711
I5295
sS'declaration'
p4712
I2404
sS'i18n'
p4713
I1113
sS'adventureworks'
p4714
I4674
sS'those'
p4715
I817
sS'^'
p4716
I7411
sS'stacked'
p4717
I5017
sS'profiles'
p4718
I5892
sS'profiler'
p4719
I4680
sS'compile'
p4720
I383
sS'ongoing'
p4721
I6183
sS'dedicate'
p4722
I6172
sS'middle'
p4723
I859
sS'coalesced'
p4724
I7337
sS'everyday'
p4725
I2046
sS'wordnet'
p4726
I5817
sS'different'
p4727
I256
sS'absences'
p4728
I6829
sS'sum/count'
p4729
I7231
sS'pay'
p4730
I3588
sS'same'
p4731
I147
sS'.schema'
p4732
I3375
sS'authentication'
p4733
I2217
sS'compiling'
p4734
I2709
sS'pad'
p4735
I350
sS'arguments'
p4736
I1800
sS'isnumeric'
p4737
I3425
sS'struggling'
p4738
I3991
sS'intermediary'
p4739
I4639
sS'union/join'
p4740
I3048
sS'extended'
p4741
I1379
sS'oracle/pl'
p4742
I4126
sS'assist'
p4743
I4464
sS'10-20'
p4744
I7463
sS'running'
p4745
I1106
sS'substringed'
p4746
I6038
sS'linearize'
p4747
I6840
sS'talktime'
p4748
I7045
sS'macro'
p4749
I2707
sS'markup'
p4750
I1714
sS'identifiers'
p4751
I3207
sS'aggregration'
p4752
I3941
sS'solve'
p4753
I1837
sS'multicolumn'
p4754
I5217
sS'upsert'
p4755
I303
sS'among'
p4756
I2121
sS'money'
p4757
I399
sS'resutls'
p4758
I4607
sS'accross'
p4759
I5887
sS'multiples'
p4760
I3008
sS'bi-directional'
p4761
I4424
sS'param'
p4762
I3338
sS'4'
p4763
I958
sS'cascading/conditional'
p4764
I6470
sS'1:1'
p4765
I5677
sS'one-to-many'
p4766
I425
sS'grid'
p4767
I3734
sS'mon'
p4768
I3846
sS'dbase'
p4769
I5384
sS'credentials'
p4770
I3879
sS'web2py'
p4771
I6727
sS'mod'
p4772
I3928
sS'vertically'
p4773
I1545
sS'identifying'
p4774
I2784
sS'server'
p4775
I115
sS'either'
p4776
I3182
sS'3000'
p4777
I6112
sS'specifies'
p4778
I4218
sS'specifier'
p4779
I2809
sS"'from"
p4780
I5197
sS"'breaks"
p4781
I7431
sS'specified'
p4782
I697
sS'images'
p4783
I1152
sS'organizing'
p4784
I5115
sS'matching'
p4785
I716
sS'users'
p4786
I300
sS'codition'
p4787
I3973
sS'confirm'
p4788
I5457
sS'phpactiverecord'
p4789
I1566
sS'decomposition'
p4790
I5719
sS'inject'
p4791
I5689
sS'expressing'
p4792
I6856
sS'reasonable'
p4793
I6841
sS'timeslots'
p4794
I1927
sS'seconds'
p4795
I1767
sS'broker'
p4796
I2852
sS'broken'
p4797
I4610
sS'joins-name'
p4798
I3927
sS'regexp'
p4799
I1004
sS'refers'
p4800
I5913
sS"'where"
p4801
I1087
sS'helping'
p4802
I7428
sS'stations'
p4803
I5142
sS'island'
p4804
I4054
sS'tabel'
p4805
I6912
sS'generated'
p4806
I2069
sS'mixes'
p4807
I7102
sS'practical'
p4808
I6976
sS'mixed'
p4809
I1508
sS'fieldvalue'
p4810
I7242
sS'vlaues'
p4811
I4641
sS'referenced'
p4812
I843
sS'references'
p4813
I1554
sS'inbox'
p4814
I7414
sS'strip'
p4815
I1766
sS'shortening'
p4816
I3524
sS'3th'
p4817
I7320
sS'decode'
p4818
I1723
sS'compliant'
p4819
I7719
sS'mondays'
p4820
I3693
sS'ipv4'
p4821
I3511
sS'ref_cursor'
p4822
I808
sS'dumping'
p4823
I6116
sS'ora-00913'
p4824
I5213
sS'self-join'
p4825
I622
sS'firstletter'
p4826
I2955
sS"'interval"
p4827
I4217
sS'commonality'
p4828
I4298
sS'arranged'
p4829
I2508
sS'sql/sybase'
p4830
I6820
sS'embed'
p4831
I4728
sS'deadlock'
p4832
I3041
sS'subclasses'
p4833
I6739
sS'distributing'
p4834
I7079
sS'rethinkdb'
p4835
I3945
sS'regexp_count'
p4836
I5949
sS'videos'
p4837
I6335
sS'maxes'
p4838
I4900
sS'student1'
p4839
I6888
sS'deep'
p4840
I3797
sS'general'
p4841
I1269
sS'non-deterministic'
p4842
I4631
sS'file'
p4843
I408
sS'11gr2'
p4844
I5300
sS'importing'
p4845
I1143
sS'lifetime'
p4846
I2240
sS'allocating'
p4847
I6567
sS'toggling'
p4848
I2386
sS'film'
p4849
I1641
sS'fill'
p4850
I954
sS'again'
p4851
I2649
sS'genres'
p4852
I4638
sS'sql-server'
p4853
I1602
sS'hybrid'
p4854
I3883
sS'weeek'
p4855
I7064
sS'field'
p4856
I82
sS'cleanup'
p4857
I6455
sS'utf-8'
p4858
I6759
sS'comumn'
p4859
I5788
sS'students'
p4860
I146
sS'durations'
p4861
I6056
sS'deriving'
p4862
I2304
sS'ansi'
p4863
I759
sS'important'
p4864
I5662
sS'concat'
p4865
I858
sS'legal'
p4866
I5798
sS'5.6.12'
p4867
I7426
sS'remote'
p4868
I3074
sS'assets'
p4869
I3399
sS'photos'
p4870
I6538
sS'resolution'
p4871
I1030
sS'represent'
p4872
I3581
sS'looped'
p4873
I3379
sS'duplicates'
p4874
I829
sS'paginate'
p4875
I2648
sS'dollar'
p4876
I5201
sS'ora-01790'
p4877
I4834
sS'expressions'
p4878
I3010
sS'children'
p4879
I1184
sS'duplicated'
p4880
I65
sS'storeprocedure'
p4881
I1312
sS'prefixed'
p4882
I2124
sS'prefixes'
p4883
I1898
sS'shredding'
p4884
I2691
sS'preserved'
p4885
I6816
sS'quering'
p4886
I4221
sS'data-driven'
p4887
I7487
sS'nonexisting'
p4888
I2768
sS'returning'
p4889
I266
sS'level-type'
p4890
I7601
sS'fall'
p4891
I3243
sS'concatenating'
p4892
I2571
sS'applicable'
p4893
I3356
sS'splitted'
p4894
I4994
sS'stringstart'
p4895
I7770
sS'portable'
p4896
I4412
sS'grabs'
p4897
I4735
sS'zero'
p4898
I54
sS'titles'
p4899
I1215
sS'further'
p4900
I1234
sS"n't"
p4901
I530
sS'abc'
p4902
I6145
sS'brackets'
p4903
I3358
sS'usin'
p4904
I3737
sS'abs'
p4905
I4712
sS'unmatching'
p4906
I4727
sS'notnull'
p4907
I6043
sS'fucntions'
p4908
I7492
sS'public'
p4909
I639
sS'movement'
p4910
I4838
sS'5000'
p4911
I6272
sS'ranged'
p4912
I6867
sS'component'
p4913
I4239
sS'mule'
p4914
I4692
sS'ranges'
p4915
I94
sS'from-to'
p4916
I4682
sS'firebase'
p4917
I4238
sS'threads'
p4918
I5760
sS'oldid'
p4919
I6760
sS'situation'
p4920
I2870
sS"'count"
p4921
I4010
sS'val31'
p4922
I7738
sS'publisher'
p4923
I6293
sS'search'
p4924
I223
sS':odbc'
p4925
I6594
sS'antisymmetric'
p4926
I6618
sS'post_id'
p4927
I7199
sS'airport'
p4928
I7767
sS'published'
p4929
I5195
sS'narrow'
p4930
I3427
sS'quotient'
p4931
I6647
sS'oralce'
p4932
I6026
sS'base64'
p4933
I3609
sS'filetype'
p4934
I6696
sS'establish'
p4935
I6021
sS'retension'
p4936
I7017
sS'distinct'
p4937
I151
sS'destination'
p4938
I1029
sS'two'
p4939
I217
sS'comparing'
p4940
I487
sS'docmd.runsql'
p4941
I2325
sS'iteratively'
p4942
I3562
sS'achieving'
p4943
I4294
sS'diamond'
p4944
I7098
sS'jsonb'
p4945
I3056
sS'controlling'
p4946
I2661
sS'varying'
p4947
I2340
sS'psql'
p4948
I2736
sS'none'
p4949
I2644
sS'hour'
p4950
I307
sS'cluster'
p4951
I4288
sS'jde'
p4952
I3011
sS'dbms_profiler'
p4953
I5150
sS'dev'
p4954
I5527
sS'remain'
p4955
I6596
sS'paragraph'
p4956
I5111
sS'foreignkeyids'
p4957
I5925
sS'strategies'
p4958
I5361
sS'purchases'
p4959
I2739
sS'compare'
p4960
I599
sS'synchronized'
p4961
I6299
sS'stacking'
p4962
I5055
sS'share'
p4963
I2773
sS'minimun'
p4964
I7588
sS'collision'
p4965
I5158
sS'minimum'
p4966
I844
sS'numbers'
p4967
I467
sS'purchased'
p4968
I3416
sS'!'
p4969
I2041
sS'needs'
p4970
I1731
sS'awkward'
p4971
I2833
sS'pl/sql'
p4972
I263
sS'maps'
p4973
I1163
sS'+7'
p4974
I4410
sS'csv'
p4975
I314
sS'css'
p4976
I5090
sS'formual'
p4977
I5162
sS'advice'
p4978
I1089
sS'connectivity'
p4979
I6193
sS'faculty'
p4980
I2507
sS'gtfs'
p4981
I6231
sS'vnum'
p4982
I5345
sS'mariadb'
p4983
I2417
sS'response'
p4984
I630
sS'pl-sql'
p4985
I1258
sS'listagg'
p4986
I707
sS'orchard'
p4987
I7194
sS'interpolated'
p4988
I2406
sS'lookahead'
p4989
I6748
sS'created_at'
p4990
I3710
sS'group-by'
p4991
I2416
sS'netblock'
p4992
I7579
sS'retrieval'
p4993
I725
sS'rounded'
p4994
I4125
sS'through'
p4995
I342
sS'filters'
p4996
I2959
sS'existence'
p4997
I2574
sS'24'
p4998
I645
sS'25'
p4999
I5082
sS'26'
p5000
I4893
sS'20'
p5001
I3088
sS'combobox'
p5002
I1578
sS'28'
p5003
I5809
sS'late'
p5004
I7042
sS'detected'
p5005
I2175
sS'messes'
p5006
I4306
sS'interbase'
p5007
I4831
sS'someone'
p5008
I2683
sS'seeking'
p5009
I7698
sS'timestamp'
p5010
I140
sS'hyphens'
p5011
I2624
sS'nullabel'
p5012
I7444
sS'compound'
p5013
I2086
sS'formulating'
p5014
I1520
sS'detach'
p5015
I3440
sS'association'
p5016
I1599
sS'mystery'
p5017
I3352
sS'easily'
p5018
I1756
sS'story.uid'
p5019
I6090
sS'2x'
p5020
I3869
sS'evade'
p5021
I4854
sS'2d'
p5022
I2985
sS'token'
p5023
I3555
sS'columms'
p5024
I4939
sS'gender'
p5025
I6783
sS'repeating'
p5026
I1160
sS'jmeter'
p5027
I951
sS'eleminate'
p5028
I7761
sS'harm'
p5029
I5996
sS'everyone'
p5030
I1638
sS'house'
p5031
I5738
sS'base64string'
p5032
I6758
sS'hard'
p5033
I1047
sS'idea'
p5034
I2055
sS'connect'
p5035
I2265
sS'fist'
p5036
I5238
sS'sql/sql'
p5037
I3114
sS'projected'
p5038
I7157
sS'acting'
p5039
I5503
sS'retreived'
p5040
I5989
sS'print'
p5041
I2007
sS'evaluation'
p5042
I2267
sS'sqlcommand'
p5043
I7169
sS'circumstance'
p5044
I5642
sS'enforcing'
p5045
I2504
sS'mmm'
p5046
I5716
sS'difficulty'
p5047
I2913
sS'rated'
p5048
I7124
sS'members'
p5049
I1462
sS'beginning'
p5050
I607
sS'benefits'
p5051
I1957
sS'executescalar'
p5052
I7430
sS'computers'
p5053
I4029
sS'inbetween'
p5054
I6098
sS'omits'
p5055
I4775
sS'0.00'
p5056
I5269
sS'dont'
p5057
I2800
sS'disregarded'
p5058
I4634
sS'instances'
p5059
I1435
sS'auto-parametrized'
p5060
I6295
sS'ora-01427'
p5061
I2823
sS'scoping'
p5062
I2434
sS'polygons'
p5063
I4565
sS'5th'
p5064
I3882
sS'least'
p5065
I403
sS'180'
p5066
I2575
sS'statement'
p5067
I165
sS'lease'
p5068
I6876
sS'selector'
p5069
I3876
sS'part'
p5070
I876
sS'dddd'
p5071
I4843
sS'differentiate'
p5072
I3590
sS'b'
p5073
I1291
sS'cyclic'
p5074
I2319
sS'recording'
p5075
I3530
sS'headers'
p5076
I1636
sS'substracting'
p5077
I5173
sS'supposed'
p5078
I7614
sS'where/how'
p5079
I6953
sS'treated'
p5080
I6095
sS'declare'
p5081
I1832
sS'interactive'
p5082
I3639
sS'debugging'
p5083
I3851
sS'orderd'
p5084
I5749
sS'y/m/j'
p5085
I6146
sS'ages'
p5086
I2187
sS'proceedure'
p5087
I3012
sS'multivalued'
p5088
I5171
sS'categorized'
p5089
I7617
sS'orders'
p5090
I2033
sS'paths'
p5091
I1547
sS'built'
p5092
I3460
sS'depending'
p5093
I80
sS'zipcode'
p5094
I5703
sS'extracted'
p5095
I3230
sS'build'
p5096
I1333
sS'row-wise'
p5097
I5558
sS'chars'
p5098
I2197
sS'chart'
p5099
I3184
sS'most'
p5100
I117
sS'myisam'
p5101
I2464
sS'services'
p5102
I2758
sS'extremely'
p5103
I3714
sS'unavailable'
p5104
I5144
sS'branching'
p5105
I1418
sS'key-value'
p5106
I4007
sS'organise'
p5107
I6439
sS'joining'
p5108
I488
sS'last_name'
p5109
I6086
sS'personid'
p5110
I5261
sS'sql/postgresql'
p5111
I6706
sS'sys_refcursor'
p5112
I3762
sS'node.js'
p5113
I4454
sS'minimizing'
p5114
I5401
sS'relation'
p5115
I477
sS"'last"
p5116
I6368
sS'fine'
p5117
I5105
sS'find'
p5118
I413
sS'dividing'
p5119
I3462
sS'merges'
p5120
I3526
sS'distributed'
p5121
I1675
sS'datalength'
p5122
I4378
sS'override'
p5123
I2074
sS'8'
p5124
I649
sS'merged'
p5125
I1935
sS'notation'
p5126
I5903
sS'permission'
p5127
I1386
sS'express'
p5128
I1912
sS'wonky'
p5129
I7694
sS'sql+'
p5130
I6127
sS'sql-'
p5131
I1330
sS'sql/'
p5132
I6475
sS'restart'
p5133
I3288
sS'resolve'
p5134
I5138
sS'querystring'
p5135
I5992
sS'remove'
p5136
I78
sS'common'
p5137
I230
sS'non-dynamic'
p5138
I7710
sS'child-parent'
p5139
I5470
sS'doubles'
p5140
I5823
sS'group/multiply'
p5141
I6732
sS'locating'
p5142
I4809
sS'individual'
p5143
I132
sS'innerjoin'
p5144
I4128
sS'11th'
p5145
I5203
sS'expert'
p5146
I5622
sS'visiting'
p5147
I4752
sS'prmary'
p5148
I7179
sS'please'
p5149
I979
sS'domain_name'
p5150
I5706
sS'cotains'
p5151
I4698
sS'smallest'
p5152
I2901
sS'ms-access'
p5153
I2295
sS'concatenate'
p5154
I742
sS'popup'
p5155
I6573
sS'responses'
p5156
I3792
sS'complement'
p5157
I2350
sS'moodle'
p5158
I4385
sS'mailbox'
p5159
I792
sS'floats'
p5160
I6615
sS'a=b'
p5161
I5580
sS'folding'
p5162
I6662
sS'reverse'
p5163
I819
sS'restaurant'
p5164
I7264
sS'annual'
p5165
I4193
sS'non-overlapping'
p5166
I1959
sS'foreign'
p5167
I705
sS'if-statement'
p5168
I7259
sS'datime'
p5169
I7670
sS'checkboxes'
p5170
I1335
sS'logout'
p5171
I6428
sS'upgraded'
p5172
I7370
sS'join/merge'
p5173
I4602
sS'consume'
p5174
I4996
sS'point'
p5175
I874
sS'simple'
p5176
I42
sS'simply'
p5177
I2260
sS'throughout'
p5178
I6109
sS'expensive'
p5179
I3413
sS'backend'
p5180
I5185
sS'ensures'
p5181
I3804
sS'raise'
p5182
I1558
sS'create'
p5183
I40
sS'ohlc'
p5184
I5649
sS'access-'
p5185
I7616
sS'dropping'
p5186
I1436
sS'm/d/yyyy'
p5187
I7763
sS'reformat'
p5188
I4669
sS'meeting'
p5189
I4705
sS'convert'
p5190
I52
sS'gap'
p5191
I845
sS'understand'
p5192
I3872
sS'wp_postmeta'
p5193
I6904
sS'prices'
p5194
I257
sS'replaces'
p5195
I4671
sS'antoher'
p5196
I2232
sS'solid'
p5197
I7485
sS'bill'
p5198
I2368
sS'val11'
p5199
I7736
sS'substrings'
p5200
I1272
sS'replaced'
p5201
I411
sS'fun'
p5202
I2377
sS'encountered'
p5203
I6612
sS'itself'
p5204
I1214
sS'caclulated'
p5205
I6879
sS'calender'
p5206
I6120
sS'table-column'
p5207
I6923
sS'subforms'
p5208
I4262
sS'selfjoin'
p5209
I6996
sS'troubling'
p5210
I7400
sS'friend.fid'
p5211
I6092
sS'sql-left-outer-join-with'
p5212
I5880
sS'copying'
p5213
I872
sS'development'
p5214
I3808
sS'currencies'
p5215
I6394
sS'keys'
p5216
I922
sS'assignment'
p5217
I821
sS'yesterday'
p5218
I2032
sS'sys'
p5219
I6137
sS'dgv'
p5220
I6637
sS'purpose'
p5221
I2684
sS'aggregate'
p5222
I545
sS'task'
p5223
I1473
sS'percentages'
p5224
I2752
sS'cross-reference'
p5225
I2924
sS'spent'
p5226
I5709
sS'flags'
p5227
I3079
sS'y'
p5228
I1646
sS'entry'
p5229
I996
sS'avaiable'
p5230
I7166
sS'spend'
p5231
I3315
sS're-order'
p5232
I7418
sS'antlr'
p5233
I4280
sS'segregate'
p5234
I6085
sS'shape'
p5235
I3593
sS'atomic'
p5236
I3051
sS'phpbb'
p5237
I6849
sS'alternative'
p5238
I1305
sS'newlines'
p5239
I682
sS'wage'
p5240
I6971
sS'cut'
p5241
I1502
sS'enough'
p5242
I6443
sS'alternate'
p5243
I1941
sS'source'
p5244
I754
sS'rgb'
p5245
I4095
sS'enteries'
p5246
I4355
sS'deliberately'
p5247
I5462
sS'within-group'
p5248
I3253
sS'next/previous'
p5249
I6385
sS'found-'
p5250
I7331
sS'administrative'
p5251
I6115
sS'bin'
p5252
I5494
sS'varchar'
p5253
I247
sS'pipe-delimited'
p5254
I6080
sS'big'
p5255
I3277
sS'bit'
p5256
I585
sS'bis'
p5257
I6314
sS'semi'
p5258
I4877
sS'follows'
p5259
I6019
sS'condtions'
p5260
I1750
sS'indication'
p5261
I6398
sS'google'
p5262
I3607
sS'often'
p5263
I3067
sS'lastest'
p5264
I4503
sS'timerange'
p5265
I5305
sS'advantages'
p5266
I3140
sS'back'
p5267
I274
sS',20'
p5268
I4837
sS'instantiating'
p5269
I2301
sS'examples'
p5270
I4165
sS'mirror'
p5271
I892
sS'candle'
p5272
I5676
sS"'ve"
p5273
I2855
sS'scale'
p5274
I4842
sS'scala'
p5275
I3215
sS'affects'
p5276
I3623
sS'decision'
p5277
I1548
sS'saas'
p5278
I7066
sS'integration'
p5279
I2372
sS'per'
p5280
I326
sS'connecting'
p5281
I1414
sS'eliminate'
p5282
I1946
sS'patient'
p5283
I5327
sS'300'
p5284
I4597
sS'opencart'
p5285
I241
sS'accesing'
p5286
I7225
sS'paranthesis'
p5287
I4824
sS'lottery'
p5288
I5537
sS'optimize'
p5289
I526
sS'ddmmyyyy'
p5290
I5223
sS'constrains'
p5291
I3769
sS'goods'
p5292
I5837
sS'constraint'
p5293
I199
sS'&'
p5294
I546
sS'mrs.'
p5295
I7395
sS'table2.col2'
p5296
I7006
sS'rowcount'
p5297
I2819
sS'extensions'
p5298
I2812
sS'reportbuilder'
p5299
I5392
sS'day/hour'
p5300
I7716
sS'genre'
p5301
I7125
sS'uniqueidentifiers'
p5302
I6186
sS'fulfil'
p5303
I7561
sS'frames'
p5304
I3613
sS'nclob'
p5305
I5581
sS'errno'
p5306
I6984
sS'tigger'
p5307
I6002
sS'curdate'
p5308
I4335
sS'forward'
p5309
I509
sS'translate'
p5310
I1241
sS'adjusting'
p5311
I4480
sS'two-part'
p5312
I6192
sS'multilevel'
p5313
I4539
sS'migrating'
p5314
I1813
sS'sequelize'
p5315
I4100
sS'sqlzoo'
p5316
I4344
sS'sdk'
p5317
I2679
sS'groovy'
p5318
I2904
sS'yyyy'
p5319
I3847
sS"'null"
p5320
I4189
sS'querydsl-'
p5321
I3569
sS"'re"
p5322
I4622
sS'autonomous'
p5323
I6195
sS'sort'
p5324
I279
sS'constant'
p5325
I664
sS'single'
p5326
I205
sS'clever'
p5327
I2818
sS'organizational'
p5328
I6539
sS'miliseconds'
p5329
I4635
sS'%'
p5330
I737
sS'access-sql'
p5331
I6563
sS'functionality'
p5332
I1341
sS'1,2,3'
p5333
I1061
sS'primary/foreign'
p5334
I5153
sS'ticketsystem'
p5335
I5842
sS'favourite'
p5336
I6201
sS'aggregates'
p5337
I1870
sS'prepared'
p5338
I3517
sS'searched_word'
p5339
I7128
sS'aggregated'
p5340
I1320
sS'negating'
p5341
I6045
sS'2003'
p5342
I2669
sS'statament'
p5343
I5381
sS'2007'
p5344
I211
sS'2005'
p5345
I538
sS'2008'
p5346
I541
sS'query'
p5347
I41
sS'coumn'
p5348
I4916
sS'factoring'
p5349
I1933
sS'intensive'
p5350
I6531
sS'quarterly'
p5351
I5552
sS'undirected'
p5352
I5621
sS'ingredient'
p5353
I5420
sS'uninitialized'
p5354
I5192
sS'labels'
p5355
I6815
sS'implicitly'
p5356
I5257
sS'putting'
p5357
I3406
sS'`order'
p5358
I6678
sS'arrange'
p5359
I3165
sS'entire'
p5360
I1013
sS'tran'
p5361
I7513
sS'non-identical'
p5362
I873
sS'help-'
p5363
I7657
sS'stddev'
p5364
I4202
sS'versioning'
p5365
I2841
sS'qstring'
p5366
I5016
sS'cron'
p5367
I5602
sS'layouts'
p5368
I7265
sS'ands'
p5369
I4434
sS'insertion'
p5370
I361
sS'year-mm'
p5371
I7620
sS'append'
p5372
I317
sS'11.2.0.4.0'
p5373
I5441
sS'giving'
p5374
I1960
sS'regep_replace'
p5375
I7460
sS'jboss'
p5376
I5416
sS'anther'
p5377
I5863
sS'rowwise'
p5378
I5306
sS'piped'
p5379
I2357
sS'exercise'
p5380
I5923
sS'date-time'
p5381
I3578
sS'body'
p5382
I1384
sS'access/sql'
p5383
I3573
sS'exchange'
p5384
I6322
sS'spacing'
p5385
I5780
sS'nonexistent'
p5386
I5839
sS'1-to-1'
p5387
I5001
sS'objects'
p5388
I1304
sS'others'
p5389
I1892
sS'implicit'
p5390
I2077
sS'extreme'
p5391
I7144
sS'doctrine2'
p5392
I522
sS'39'
p5393
I7316
sS'38'
p5394
I3805
sS'32'
p5395
I1372
sS'30'
p5396
I1982
sS'36'
p5397
I1798
sS'35'
p5398
I7672
sS'3+'
p5399
I7507
sS'weekday'
p5400
I1670
sS'existent'
p5401
I5303
sS'implement'
p5402
I926
sS'proof'
p5403
I6837
sS'guidance'
p5404
I4293
sS'composed'
p5405
I6403
sS'named'
p5406
I1645
sS'dau/mau'
p5407
I6599
sS'dd/mm/yy'
p5408
I5523
sS'private'
p5409
I5216
sS'decrease'
p5410
I6517
sS'names'
p5411
I316
sS'composer'
p5412
I4771
sS'resets'
p5413
I4681
sS'sql-statement'
p5414
I5543
sS'readable'
p5415
I1343
sS'chr'
p5416
I7329
sS'themselves'
p5417
I3814
sS'deepest'
p5418
I5191
sS'self-reference'
p5419
I5637
sS'upcoming'
p5420
I5722
sS'tax'
p5421
I6661
sS'dupes'
p5422
I4952
sS'trail'
p5423
I6504
sS'iif'
p5424
I4813
sS'normalized'
p5425
I3389
sS'arranging'
p5426
I3390
sS'customerid'
p5427
I5472
sS'subscription'
p5428
I3878
sS'account'
p5429
I1178
sS'f'
p5430
I3757
sS'closing'
p5431
I1054
sS'unread'
p5432
I5508
sS'didnt'
p5433
I7034
sS'fetch'
p5434
I929
sS'sqlite'
p5435
I202
sS'reserved'
p5436
I2268
sS'objectid'
p5437
I5627
sS'invoices'
p5438
I1496
sS'simultaniously'
p5439
I7216
sS'effectively'
p5440
I4660
sS'subquerys'
p5441
I3410
sS'native'
p5442
I1405
sS'varied'
p5443
I3887
sS'filepath'
p5444
I5717
sS'parent/child'
p5445
I4327
sS'prestashop'
p5446
I4061
sS'devart'
p5447
I3240
sS'varchar2'
p5448
I569
sS'attachment'
p5449
I2638
sS'stock'
p5450
I1006
sS'profile'
p5451
I1154
sS'buildings'
p5452
I3891
sS'specifications'
p5453
I5836
sS'vowels'
p5454
I2089
sS'philosophy'
p5455
I5891
sS'collection'
p5456
I1149
sS'dc'
p5457
I4389
sS'regexp_instr'
p5458
I7437
sS'multiplication'
p5459
I1438
sS'ambiguous'
p5460
I2652
sS'bind'
p5461
I2755
sS'grails'
p5462
I1458
sS'correspond'
p5463
I5181
sS'lpad/rpad'
p5464
I4295
sS'varchars'
p5465
I3632
sS'fallback'
p5466
I239
sS'transitivity'
p5467
I7658
sS'bins'
p5468
I562
sS'non-integer'
p5469
I5978
sS'meter'
p5470
I6861
sS'symbols'
p5471
I2231
sS'looping'
p5472
I1606
sS'hbase'
p5473
I5184
sS'nasty'
p5474
I6905
sS'bunch'
p5475
I3616
sS'lf'
p5476
I6688
sS'located'
p5477
I6772
sS'labor'
p5478
I5089
sS'resorting'
p5479
I997
sS'latitude'
p5480
I2355
sS"'is"
p5481
I6982
sS'<'
p5482
I745
sS'sp_rename'
p5483
I7548
sS'junction'
p5484
I1652
sS'greater'
p5485
I1026
sS'descendants'
p5486
I3119
sS'dal'
p5487
I6000
sS'phpmyad'
p5488
I4393
sS'spell'
p5489
I2219
sS'90\xc2\xb0'
p5490
I3322
sS'mention'
p5491
I887
sS'cutting'
p5492
I2326
sS'cleanup/streamline'
p5493
I2553
sS'day'
p5494
I308
sS'verifying'
p5495
I5093
sS'identified'
p5496
I6176
sS'correlative'
p5497
I6821
sS'identifies'
p5498
I6402
sS'identifier'
p5499
I1141
sS'constraints'
p5500
I998
sS'activate'
p5501
I3168
sS'sql2008'
p5502
I3146
sS'column/table'
p5503
I5272
sS'sql2005'
p5504
I3720
sS'sql2000'
p5505
I5268
sS'broadcast'
p5506
I6964
sS'pivot'
p5507
I51
sS'ssas'
p5508
I1107
sS'-miscoding'
p5509
I1616
sS'pgsql'
p5510
I3027
sS'ref'
p5511
I1724
sS'reg'
p5512
I3747
sS'math'
p5513
I1632
sS'effiency'
p5514
I4020
sS'workflow'
p5515
I7722
sS'retrieved'
p5516
I1263
sS'approaches'
p5517
I3612
sS'retrieves'
p5518
I4616
sS'receipts'
p5519
I7382
sS'laravel'
p5520
I957
sS'backwards'
p5521
I3553
sS'indent'
p5522
I5027
sS'adapters'
p5523
I5775
sS'recipes'
p5524
I3778
sS'bidirectional'
p5525
I3283
sS'elasticsearch'
p5526
I3893
sS'workbook'
p5527
I2954
sS'retain'
p5528
I4552
sS'suffix'
p5529
I3739
sS'pga'
p5530
I4151
sS'reaches'
p5531
I6925
sS'minipulation'
p5532
I6850
sS'improvements'
p5533
I5786
sS'reached'
p5534
I2581
sS'hashes'
p5535
I2309
sS'braces'
p5536
I4186
sS'2008r2'
p5537
I4224
sS'unspecified'
p5538
I5805
sS'intermediate'
p5539
I1129
sS'mybatis'
p5540
I5528
sS'messing'
p5541
I7221
sS'northwind'
p5542
I1773
sS'scans'
p5543
I5012
sS'udt'
p5544
I6135
sS'explanation'
p5545
I834
sS'acquire'
p5546
I6610
sS'tablix'
p5547
I4953
sS'jndi'
p5548
I7090
sS'udf'
p5549
I2527
sS'rtrim'
p5550
I3478
sS'textfield'
p5551
I7685
sS'pointers'
p5552
I7409
sS'subsequence'
p5553
I7038
sS'visited'
p5554
I2523
sS'impala'
p5555
I3726
sS'codeignitor'
p5556
I5205
sS'openedge'
p5557
I7495
sS'pk_id'
p5558
I7132
sS'tidy'
p5559
I5802
sS'have'
p5560
I107
sS'min'
p5561
I170
sS'modulo/modulus'
p5562
I5620
sS'mid'
p5563
I7425
sS'case/if/then'
p5564
I7478
sS'mix'
p5565
I258
sS'current_date'
p5566
I3018
sS'concerns'
p5567
I4118
sS'unless'
p5568
I1559
sS'rearrange'
p5569
I5726
sS'doublettes'
p5570
I6970
sS'targetrowcount'
p5571
I2997
sS'payment'
p5572
I2844
sS'gather'
p5573
I5277
sS'request'
p5574
I1406
sS'updatable'
p5575
I2378
sS'comma-separated'
p5576
I1481
sS'}'
p5577
I1713
sS'selection'
p5578
I698
sS'text'
p5579
I71
sS'supported'
p5580
I5928
sS'one-off'
p5581
I7515
sS'rotating'
p5582
I6986
sS'desc'
p5583
I1421
sS'staff'
p5584
I2876
sS'4.0.2'
p5585
I5498
sS'openxml'
p5586
I3309
sS'controls'
p5587
I4067
sS'gorm'
p5588
I5730
sS'prolong'
p5589
I2145
sS'search/replace'
p5590
I2428
sS'ksh'
p5591
I7543
sS'bean'
p5592
I4947
sS'timing'
p5593
I2714
sS'substrate'
p5594
I1797
sS'cached'
p5595
I6530
sS'teams'
p5596
I4129
sS'cycles'
p5597
I2632
sS'constructing'
p5598
I894
sS'exists'
p5599
I727
sS'timezones'
p5600
I7385
sS'national'
p5601
I4131
sS'subreport'
p5602
I7315
sS'delete-statement'
p5603
I7085
sS'left-outer'
p5604
I3500
sS'attempting'
p5605
I5248
sS'pattern'
p5606
I678
sS'discounts'
p5607
I7352
sS'difficulties'
p5608
I4463
sS'apos'
p5609
I7680
sS'routine'
p5610
I4575
sS'progress'
p5611
I627
sS'boundary'
p5612
I6550
sS'contraints'
p5613
I6714
sS'less/greater'
p5614
I7053
sS'deliver'
p5615
I4933
sS'implementing'
p5616
I563
sS'`greatest'
p5617
I5084
sS'month/number'
p5618
I6202
sS'optional'
p5619
I598
sS'commenting'
p5620
I7368
sS'regexp_like'
p5621
I1663
sS'plugin'
p5622
I4679
sS'stockin'
p5623
I7219
sS'taking'
p5624
I559
sS'equal'
p5625
I168
sS'fulfilled'
p5626
I4006
sS'case-statement'
p5627
I5342
sS'attributes'
p5628
I959
sS'passing'
p5629
I2337
sS'values-'
p5630
I5209
sS'otherwise'
p5631
I1191
sS'comment'
p5632
I3156
sS'`select`'
p5633
I5037
sS'relevant'
p5634
I1271
sS'substring_index'
p5635
I7150
sS'arguement'
p5636
I7167
sS'venn'
p5637
I280
sS'basing'
p5638
I935
sS'uid'
p5639
I2690
sS'rdbms'
p5640
I2692
sS'estimating'
p5641
I7289
sS'copies'
p5642
I3118
sS'migrate'
p5643
I2596
sS'json'
p5644
I966
sS'indicators'
p5645
I5091
sS'copied'
p5646
I3419
sS'outliers'
p5647
I3938
sS'anomaly'
p5648
I2398
sS'sysobjects'
p5649
I1596
sS'bulk'
p5650
I5
sS'finished'
p5651
I5137
sS'tablea'
p5652
I1514
sS'covered'
p5653
I6463
sS'fellow'
p5654
I1482
sS'homes'
p5655
I7591
sS'multi'
p5656
I105
sS'cypher'
p5657
I3604
sS'splits'
p5658
I5289
sS'plain'
p5659
I1459
sS'appearance'
p5660
I4737
sS'objective-c'
p5661
I789
sS'value'
p5662
I96
sS'by`'
p5663
I1719
sS'promoted'
p5664
I7500
sS'revisited'
p5665
I6100
sS'inherits'
p5666
I5646
sS'helper'
p5667
I6081
sS'manually'
p5668
I508
sS'almost'
p5669
I3730
sS'select-where-subquery-returns-one'
p5670
I4820
sS'watched'
p5671
I1640
sS'partner'
p5672
I7562
sS'arabic'
p5673
I2621
sS'regression'
p5674
I3542
sS'sequentially'
p5675
I1150
sS'begining'
p5676
I7135
sS'empty/null'
p5677
I7115
sS')'
p5678
I122
sS'00:00:00'
p5679
I2043
sS'infer'
p5680
I7422
sS'practice'
p5681
I857
sS'nzsql'
p5682
I4360
sS'extention'
p5683
I5296
sS'ios'
p5684
I785
sS'datatypes'
p5685
I505
sS'unlinked'
p5686
I3257
sS'0,1,2'
p5687
I5995
sS'numbered'
p5688
I2426
sS'center'
p5689
I3631
sS'builder'
p5690
I523
sS'data-set'
p5691
I6764
sS'sets'
p5692
I227
sS'comparisons'
p5693
I5240
sS'drivers'
p5694
I4600
sS'latest'
p5695
I480
sS'fileds'
p5696
I4313
sS'stores'
p5697
I4260
sS'proximity'
p5698
I4545
sS'numbering'
p5699
I433
sS'group-concatenate'
p5700
I987
sS'abap'
p5701
I5657
sS'underlying'
p5702
I2458
sS'seats'
p5703
I3750
sS'imagetype'
p5704
I1153
sS'ads'
p5705
I5450
sS'autogenerate'
p5706
I6139
sS'mathematically'
p5707
I4524
sS'parent_id'
p5708
I4171
sS'add'
p5709
I192
sS'ado'
p5710
I3582
sS'smart'
p5711
I2972
sS'gmt'
p5712
I3839
sS'tests'
p5713
I4373
sS'optimizations'
p5714
I2241
sS'elapsed'
p5715
I2743
sS'gmail.com'
p5716
I5496
sS'deployment'
p5717
I6207
sS'insert'
p5718
I233
sS'like'
p5719
I69
sS'success'
p5720
I4091
sS'validations'
p5721
I1146
sS'works'
p5722
I462
sS'soft'
p5723
I3510
sS'crawler'
p5724
I1774
sS'accessible'
p5725
I3952
sS'xor-like'
p5726
I5155
sS"'table"
p5727
I5575
sS'propel'
p5728
I3985
sS'jan'
p5729
I3155
sS'discontinuities'
p5730
I7435
sS'recommendation'
p5731
I529
sS'proper'
p5732
I1749
sS'conver'
p5733
I6215
sS'happens'
p5734
I4593
sS'est'
p5735
I5418
sS'set-based'
p5736
I1653
sS'in-line'
p5737
I3211
sS'masked'
p5738
I7555
sS'drive_md5'
p5739
I7627
sS'expiry'
p5740
I7036
sS'host'
p5741
I543
sS'expire'
p5742
I2031
sS'although'
p5743
I3265
sS'parentid'
p5744
I3691
sS'periodically'
p5745
I4557
sS'simpler'
p5746
I1882
sS'about'
p5747
I1095
sS'actual'
p5748
I602
sS'6am'
p5749
I3176
sS'ltree'
p5750
I3465
sS'18,2'
p5751
I4340
sS'dbms_random'
p5752
I5491
sS'unidirectional'
p5753
I1920
sS'discard'
p5754
I3913
sS'alphabetically'
p5755
I1187
sS'rendered'
p5756
I5506
sS'table-valued-function'
p5757
I3885
sS'functional'
p5758
I2140
sS'billions'
p5759
I4515
sS'dataset'
p5760
I1585
sS'doesnt'
p5761
I2291
sS'female'
p5762
I2210
sS'.modify'
p5763
I4957
sS'timedifference'
p5764
I5487
sS'elastic'
p5765
I6959
sS'msaccess'
p5766
I1363
sS'table_a'
p5767
I4683
sS'condense'
p5768
I3289
sS'efficent'
p5769
I3602
sS'can/how'
p5770
I7379
sS'biggest'
p5771
I3189
sS'empids'
p5772
I4265
sS"'\xc3\xa2"
p5773
I4896
sS'repeater'
p5774
I6020
sS'bus'
p5775
I6747
sS'brand'
p5776
I3566
sS'sequel'
p5777
I5382
sS'but'
p5778
I106
sS'repeated'
p5779
I636
sS'oauth'
p5780
I7603
sS'beetween'
p5781
I2915
sS'editing'
p5782
I6489
sS'bug'
p5783
I2276
sS'partially'
p5784
I3172
sS'wise'
p5785
I615
sS'pivot/unpivot'
p5786
I5440
sS'wish'
p5787
I4689
sS'j'
p5788
I7660
sS'variations'
p5789
I4227
sS'flip'
p5790
I6047
sS'birthdate'
p5791
I5175
sS'avaliable'
p5792
I3433
sS'update/delete'
p5793
I4568
sS'minutes'
p5794
I1643
sS'update/increment'
p5795
I7751
sS'periode'
p5796
I6626
sS'colum'
p5797
I624
sS'varray'
p5798
I3097
sS'measure'
p5799
I3996
sS'pid'
p5800
I5574
sS'pie'
p5801
I6809
sS'levenshtein'
p5802
I5033
sS'pig'
p5803
I3731
sS're-using'
p5804
I7571
sS'periods'
p5805
I1219
sS'relates'
p5806
I5409
sS'in-between'
p5807
I2512
sS'openquery'
p5808
I2845
sS'48'
p5809
I2515
sS'44'
p5810
I4483
sS'45'
p5811
I5100
sS'detail'
p5812
I706
sS'40'
p5813
I4011
sS'duplications'
p5814
I6844
sS'cross-checking'
p5815
I2671
sS"'abc"
p5816
I7215
sS'sycnc'
p5817
I2499
sS'bundle'
p5818
I3674
sS'ora_rowscn'
p5819
I3570
sS'year/month/day'
p5820
I4251
sS'aginity'
p5821
I6286
sS'\xe2\x80\x93'
p5822
I4237
sS'\xe2\x80\x94'
p5823
I3304
sS'\xe2\x80\x99'
p5824
I3840
sS'\xe2\x80\x98'
p5825
I4207
sS'\xe2\x80\x9d'
p5826
I2584
sS'\xe2\x80\x9c'
p5827
I2583
sS'original'
p5828
I1262
sS'working..'
p5829
I7605
sS'pupil'
p5830
I5373
sS'3.65,5,1'
p5831
I4795
sS'limited'
p5832
I1922
sS'searchable'
p5833
I6208
sS'sleep'
p5834
I5985
sS'hate'
p5835
I2552
sS'if-else'
p5836
I1156
sS'poorly'
p5837
I3914
sS'feeding'
p5838
I4932
sS'violate'
p5839
I1692
sS'nvl/decode'
p5840
I7682
sS'entityframework'
p5841
I2186
sS'concret'
p5842
I7398
sS'sqldeveloper'
p5843
I2634
sS'under'
p5844
I1975
sS'@'
p5845
I714
sS'every'
p5846
I560
sS'dateid'
p5847
I4988
sS'servlet'
p5848
I7016
sS'school'
p5849
I180
sS'look-up'
p5850
I3093
sS'enclosing'
p5851
I6990
sS'throught'
p5852
I5042
sS'netbeans'
p5853
I7490
sS'sql/coldfusion'
p5854
I5733
sS'consistent'
p5855
I2672
sS'estimates'
p5856
I6624
sS'direct'
p5857
I4277
sS'readpast'
p5858
I6308
sS'surrounding'
p5859
I3174
sS'street'
p5860
I3723
sS'accnt_num'
p5861
I6969
sS'friendships'
p5862
I5039
sS'estimated'
p5863
I6575
sS"'readable"
p5864
I6880
sS'hide'
p5865
I3673
sS'specification'
p5866
I2072
sS'selected'
p5867
I412
sS'supplied'
p5868
I2556
sS'formatting'
p5869
I1197
sS'supplier'
p5870
I3480
sS'hundreds'
p5871
I2306
sS'studio'
p5872
I1758
sS'represented'
p5873
I1531
sS'path'
p5874
I1162
sS'digits'
p5875
I733
sS'endpoints'
p5876
I6136
sS'pre-update'
p5877
I5712
sS'forum'
p5878
I6347
sS'oracle9i'
p5879
I6607
sS'leaves'
p5880
I4206
sS'changed'
p5881
I1173
sS'month-year'
p5882
I6640
sS'changes'
p5883
I1297
sS'prints'
p5884
I6014
sS'visible'
p5885
I6670
sS'mysqldump'
p5886
I1230
sS'forums'
p5887
I2969
sS'company2'
p5888
I4083
sS'company1'
p5889
I4082
sS'would'
p5890
I68
sS"select'ing"
p5891
I702
sS'group_concat'
p5892
I999
sS'm1'
p5893
I7530
sS'asset'
p5894
I5215
sS'm2'
p5895
I7531
sS'caluse'
p5896
I2923
sS'tree-like'
p5897
I6124
sS'coursename'
p5898
I7311
sS'iso8601'
p5899
I4486
sS'vpd'
p5900
I3401
sS'chracter'
p5901
I4089
sS'textfile'
p5902
I5193
sS'outdated'
p5903
I6324
sS'must'
p5904
I2910
sS'me'
p5905
I394
sS'join'
p5906
I89
sS'mb'
p5907
I2030
sS'mm'
p5908
I2202
sS'mi'
p5909
I5276
sS'.wav'
p5910
I5297
sS'geometry'
p5911
I2783
sS'ms'
p5912
I534
sS'mr'
p5913
I7396
sS'my'
p5914
I396
sS'preserving'
p5915
I2723
sS'1column'
p5916
I3644
sS'scheduling'
p5917
I830
sS'ansi_nulls'
p5918
I6869
sS'keep'
p5919
I1171
sS'unordered'
p5920
I3058
sS'fieds'
p5921
I7286
sS'guarantee'
p5922
I3135
sS'retrives'
p5923
I7664
sS'end'
p5924
I608
sS'adjacent'
p5925
I558
sS'ancestor'
p5926
I4014
sS'multi-level'
p5927
I2763
sS'description'
p5928
I415
sS'mess'
p5929
I2415
sS'yesod'
p5930
I6566
sS'predicates'
p5931
I7290
sS'parallel'
p5932
I4113
sS'yql'
p5933
I1226
sS'undesired'
p5934
I6144
sS'datatype'
p5935
I514
sS'sql/mysql'
p5936
I1611
sS'summing'
p5937
I48
sS'e-commerce'
p5938
I5737
sS'complexity'
p5939
I4159
sS'ultimate'
p5940
I4950
sS'enter'
p5941
I3341
sS'reforming'
p5942
I5136
sS'executed'
p5943
I1532
sS'extents'
p5944
I2390
sS'dababase'
p5945
I7553
sS'autogenerated'
p5946
I5489
sS'over'
p5947
I619
sS'non-identity'
p5948
I4908
sS'expects'
p5949
I4448
sS'keys/relationships'
p5950
I4080
sS'synonyms'
p5951
I2315
sS'executes'
p5952
I4941
sS'replicating'
p5953
I5535
sS'meta-related'
p5954
I4732
sS'automating'
p5955
I4726
sS'difference'
p5956
I31
sS'cli'
p5957
I6949
sS'writing'
p5958
I272
sS'edits'
p5959
I4816
sS'400'
p5960
I7401
sS'clr'
p5961
I4143
sS'nonaggregate'
p5962
I4197
sS'prevented'
p5963
I6250
sS'accumulating'
p5964
I5522
sS'latest/most'
p5965
I6895
sS'fillins'
p5966
I5664
sS'rowrank'
p5967
I5335
sS'odbc'
p5968
I364
sS'explode'
p5969
I1355
sS'filling'
p5970
I1527
sS'hql'
p5971
I1666
sS'each'
p5972
I131
sS'oci8'
p5973
I1420
sS'consolidate'
p5974
I1726
sS'database-specific'
p5975
I7713
sS'combining'
p5976
I802
sS'saturday'
p5977
I1442
sS'buildup'
p5978
I6096
sS'revisions'
p5979
I1828
sS'pseudocolumn'
p5980
I6276
sS'reused'
p5981
I4517
sS'way/s'
p5982
I4181
sS'adjust'
p5983
I2642
sS'got'
p5984
I3128
sS'newly'
p5985
I2020
sS'hana'
p5986
I5984
sS'associate'
p5987
I4427
sS'free'
p5988
I2255
sS'formation'
p5989
I5675
sS'freq'
p5990
I7123
sS'wanted'
p5991
I3651
sS'coloumns'
p5992
I2984
sS'activerecord'
p5993
I3263
sS'korma'
p5994
I5372
sS'days'
p5995
I332
sS'priorities'
p5996
I7203
sS'local'
p5997
I1490
sS'filter'
p5998
I275
sS'columnname'
p5999
I3653
sS'differnt'
p6000
I6704
sS'onto'
p6001
I204
sS'rand'
p6002
I1684
sS'rang'
p6003
I2667
sS'already'
p6004
I1989
sS'pipe-separated'
p6005
I7757
sS'coding'
p6006
I3217
sS'primary'
p6007
I977
sS'rank'
p6008
I811
sS'restrict'
p6009
I587
sS'woocommerce'
p6010
I2229
sS'\xc3\x9f'
p6011
I3095
sS'sumif'
p6012
I2597
sS'*and*'
p6013
I7138
sS'categorize'
p6014
I5326
sS"'inner"
p6015
I5869
sS'if/then/else'
p6016
I2409
sS'rewritten'
p6017
I7086
sS'top'
p6018
I129
sS'indeterminate'
p6019
I4964
sS'tow'
p6020
I4174
sS'confirming'
p6021
I3247
sS'too'
p6022
I1247
sS'percentage'
p6023
I520
sS'ceiling'
p6024
I4802
sS'tool'
p6025
I536
sS'took'
p6026
I4623
sS'wrapped'
p6027
I5845
sS'repeatable'
p6028
I5443
sS'a=x'
p6029
I7136
sS'operands'
p6030
I3801
sS'roles'
p6031
I2835
sS'divisible'
p6032
I7419
sS'minvalue'
p6033
I7301
sS'classes'
p6034
I148
sS'10th'
p6035
I5204
sS'bridge'
p6036
I4865
sS'fashion'
p6037
I6793
sS'rac'
p6038
I6230
sS'ran'
p6039
I3472
sS'raw'
p6040
I3373
sS'leafs'
p6041
I2116
sS'val2'
p6042
I7728
sS'morethan'
p6043
I7726
sS'plpgsql'
p6044
I2899
sS'relatively'
p6045
I7037
sS'-'
p6046
I188
sS'bugzilla'
p6047
I2275
sS'oriented'
p6048
I4839
sS'client'
p6049
I4677
sS'vice-versa'
p6050
I6048
sS'though'
p6051
I2493
sS'glob'
p6052
I4591
sS'denominator'
p6053
I5388
sS'bigquery'
p6054
I2538
sS'couting'
p6055
I6007
sS'pre-created'
p6056
I2822
sS'allias'
p6057
I5932
sS'6am-8pm'
p6058
I1671
sS'partition'
p6059
I249
sS'flow'
p6060
I2718
sS'de-normalized'
p6061
I7291
sS'data-type'
p6062
I2279
sS'non-trivial'
p6063
I6283
sS'enterprise'
p6064
I5059
sS'changeset'
p6065
I6901
sS'dups'
p6066
I6643
sS'random'
p6067
I694
sS'dupe'
p6068
I3238
sS'colors'
p6069
I4864
sS'radio'
p6070
I7176
sS'solutions'
p6071
I4243
sS'substituting'
p6072
I2918
sS'analogue'
p6073
I5770
sS'availability'
p6074
I1893
sS'oci'
p6075
I3123
sS'row_num'
p6076
I5212
sS"'with"
p6077
I4170
sS'users_count'
p6078
I6924
sS'looping/iterating'
p6079
I4245
sS'ocs'
p6080
I6033
sS'mixture'
p6081
I3185
sS'queryies'
p6082
I5908
sS'amazon'
p6083
I4386
sS'despite'
p6084
I4922
sS'report'
p6085
I771
sS'reconstruct'
p6086
I5679
sS'countries'
p6087
I2425
sS'twice'
p6088
I965
sS'multiple/duplicate'
p6089
I5782
sS'occurance'
p6090
I2701
sS'automatic'
p6091
I3618
sS'detection'
p6092
I5364
sS'nul'
p6093
I5062
sS'num'
p6094
I4436
sS'bed'
p6095
I6715
sS'implement/improve/'
p6096
I6572
sS'processlist'
p6097
I4253
sS'escaping'
p6098
I2395
sS'capacity'
p6099
I3132
sS'non-joining'
p6100
I7114
sS'one-too-many'
p6101
I4884
sS'to_number'
p6102
I5663
sS'friend.uid'
p6103
I6091
sS'365'
p6104
I4852
sS'approach'
p6105
I918
sS'sprade'
p6106
I6870
sS'360'
p6107
I5894
sS'adding'
p6108
I905
sS'confusion'
p6109
I1715
sS'weak'
p6110
I6590
sS'however'
p6111
I1988
sS'boss'
p6112
I6804
sS'html5'
p6113
I2712
sS'unnormalized'
p6114
I6371
sS'json_populate_recordset'
p6115
I4213
sS'news'
p6116
I5849
sS'attendence'
p6117
I7081
sS'zend_db'
p6118
I282
sS'improve'
p6119
I395
sS'protect'
p6120
I1383
sS'irregular'
p6121
I2658
sS'fault'
p6122
I6052
sS'extracts'
p6123
I7443
sS'players'
p6124
I4413
sS'merging'
p6125
I44
sS'games'
p6126
I1167
sS'stragg'
p6127
I5509
sS'variance'
p6128
I3627
sS'nchar'
p6129
I600
sS'exhibit'
p6130
I7151
sS'standings'
p6131
I6805
sS'panel'
p6132
I7598
sS'commutative'
p6133
I1825
sS'simplification'
p6134
I3121
sS'been'
p6135
I531
sS'quickly'
p6136
I3317
sS'caculate'
p6137
I7747
sS'spread'
p6138
I4617
sS'unixtime'
p6139
I1017
sS'expected'
p6140
I267
sS'containers'
p6141
I6569
sS'xxx'
p6142
I3403
sS'uncommon'
p6143
I5645
sS'catch'
p6144
I2288
sS'apigility'
p6145
I5776
sS'mathmatical'
p6146
I6500
sS'combos'
p6147
I7294
sS'rownum=1'
p6148
I7054
sS'container-query'
p6149
I7408
sS'queryover'
p6150
I6340
sS'universal-'
p6151
I5219
sS'n'
p6152
I712
sS'dept'
p6153
I1905
sS'thousandth'
p6154
I6617
sS'teachers'
p6155
I7667
sS'penultimate'
p6156
I6255
sS'transfering'
p6157
I7046
sS'procedure'
p6158
I63
sS'3nf'
p6159
I2625
sS'nodejs'
p6160
I2432
sS'disjoint'
p6161
I6154
sS'disctinct'
p6162
I1338
sS'ramifications'
p6163
I5700
sS'containing'
p6164
I456
sS'suggest'
p6165
I2142
sS'linked'
p6166
I1037
sS'complex'
p6167
I489
sS'inventory'
p6168
I949
sS'several'
p6169
I660
sS'peaks'
p6170
I7238
sS'datetimestamp'
p6171
I6549
sS'numerical'
p6172
I1768
sS'fridays'
p6173
I4195
sS'portal'
p6174
I3554
sS'characters'
p6175
I568
sS'workings'
p6176
I5614
sS'normalization'
p6177
I1192
sS'cycle'
p6178
I2102
sS'jooq'
p6179
I3268
sS'prioritize'
p6180
I5606
sS'dayoftheweek'
p6181
I4320
sS'uploading'
p6182
I4889
sS'datename'
p6183
I2562
sS'savings'
p6184
I2617
sS'greatest'
p6185
I885
sS'assembling'
p6186
I1958
sS'proposed'
p6187
I2101
sS'starting'
p6188
I1398
sS'grades'
p6189
I2820
sS'npages'
p6190
I4905
sS'vertica'
p6191
I3259
sS'greater-than'
p6192
I6411
sS'group_by'
p6193
I4062
sS'gave'
p6194
I5199
sS'casting'
p6195
I3386
sS'bands'
p6196
I7575
sS'breaks'
p6197
I5815
sS'yymmdd'
p6198
I6363
sS'descending'
p6199
I1334
sS'advanced'
p6200
I1111
sS'apart'
p6201
I3669
sS'appearing'
p6202
I983
sS'56'
p6203
I7134
sS'50'
p6204
I409
sS'52'
p6205
I4145
sS'specific'
p6206
I160
sS'renamed'
p6207
I3760
sS'5+'
p6208
I1128
sS'arbitrary'
p6209
I2750
sS'fileid'
p6210
I6429
sS'excerpt'
p6211
I943
sS'hierarchyid'
p6212
I7321
sS'election'
p6213
I4951
sS'escape'
p6214
I1864
sS'auto-increment'
p6215
I2380
sS'tutorial'
p6216
I5669
sS'proceeding'
p6217
I6728
sS'totals'
p6218
I1366
sS'cnf'
p6219
I3828
sS'everything'
p6220
I2133
sS'aggregrate'
p6221
I5792
sS'allocate'
p6222
I3749
sS'num_rows'
p6223
I7158
sS'cno'
p6224
I7497
sS'booking'
p6225
I3345
sS'core'
p6226
I2641
sS'deleted'
p6227
I882
sS'linq/ef/lambda'
p6228
I3100
sS'discount'
p6229
I2741
sS'permitted'
p6230
I7572
sS'vs2010'
p6231
I7693
sS'deletes'
p6232
I4204
sS'compose'
p6233
I7651
sS'limitation'
p6234
I2677
sS'attacks'
p6235
I4571
sS'patern'
p6236
I6907
sS'ensure'
p6237
I2703
sS'runtime'
p6238
I5227
sS'mistyped'
p6239
I5156
sS'wildcards'
p6240
I2539
sS'get_raw_page'
p6241
I7254
sS"'labor"
p6242
I6978
sS'default-value'
p6243
I7285
sS'presence'
p6244
I1852
sS'precedure'
p6245
I6281
sS'puzzle'
p6246
I6133
sS'obtaining'
p6247
I1237
sS'dialy'
p6248
I4853
sS'accommodate'
p6249
I4127
sS'differnet'
p6250
I3934
sS'existed'
p6251
I6490
sS'rely'
p6252
I6529
sS'categorization'
p6253
I7717
sS'nzsql/code'
p6254
I2666
sS'transform'
p6255
I1102
sS'why'
p6256
I478
sS'stuck'
p6257
I816
sS'comma-separation'
p6258
I3130
sS'inhql/jql'
p6259
I3073
sS'head'
p6260
I1344
sS'medium'
p6261
I4841
sS'attempted'
p6262
I6910
sS'differences'
p6263
I884
sS'removes'
p6264
I3741
sS'heap'
p6265
I4943
sS'cidr'
p6266
I7174
sS'removed'
p6267
I5292
sS'portions'
p6268
I4526
sS'versions'
p6269
I1020
sS'devide'
p6270
I2430
sS'his/her'
p6271
I6327
sS'bids'
p6272
I1630
sS'paging'
p6273
I1471
sS'simplifying'
p6274
I944
sS'submitting'
p6275
I5990
sS'trim'
p6276
I2196
sS'decrypt'
p6277
I6611
sS'sometime'
p6278
I4694
sS'dbms_xmldom'
p6279
I6664
sS'trip'
p6280
I190
sS'constructed'
p6281
I2747
sS'tsql-'
p6282
I3963
sS'end_date'
p6283
I5895
sS'no'
p6284
I319
sS'na'
p6285
I6450
sS'whereas'
p6286
I6533
sS'tip'
p6287
I3392
sS'denormalise'
p6288
I6476
sS'plot'
p6289
I7448
sS'til'
p6290
I2580
sS'nz'
p6291
I7526
sS'setting'
p6292
I854
sS'co-dependence'
p6293
I5473
sS'tie'
p6294
I5571
sS'nr'
p6295
I3954
sS'pymongo'
p6296
I3849
sS'unbalanced'
p6297
I1790
sS'node'
p6298
I936
sS'picture'
p6299
I5250
sS'toad'
p6300
I1099
sS'preceding'
p6301
I3999
sS'football'
p6302
I5103
sS'sql'
p6303
I10
sS'hashing'
p6304
I6574
sS'faster'
p6305
I1371
sS'tsqlt'
p6306
I1036
sS'n2'
p6307
I6780
sS'neighbors'
p6308
I4991
sS'subtotals'
p6309
I2327
sS'roo'
p6310
I6865
sS'tbl2.col'
p6311
I6373
sS'particular'
p6312
I813
sS'alternatives'
p6313
I1753
sS'focus'
p6314
I6099
sS'procudure'
p6315
I7052
sS'leads'
p6316
I580
sS'for/before'
p6317
I6667
sS'graphing'
p6318
I7070
sS'comments'
p6319
I1699
sS'computation'
p6320
I4558
sS'displaying'
p6321
I1240
sS'.00'
p6322
I4980
sS'row'
p6323
I109
sS'wampserver'
p6324
I6582
sS'inverse'
p6325
I2283
sS'clarification'
p6326
I3865
sS'`timestamp'
p6327
I6150
sS'environment'
p6328
I3227
sS'charge'
p6329
I6413
sS'listitem'
p6330
I7209
sS'town'
p6331
I6197
sS'advantage'
p6332
I4768
sS'frequencies'
p6333
I6180
sS'hh.mm'
p6334
I6408
sS'12m'
p6335
I5633
sS'nesting'
p6336
I691
sS'partitions'
p6337
I2540
sS'instirng'
p6338
I6022
sS'noentityescaping'
p6339
I1115
sS'level'
p6340
I295
sS'posts'
p6341
I688
sS'standards'
p6342
I3108
sS'quick'
p6343
I880
sS'tenths'
p6344
I4699
sS'weekly/monthly/quarterly'
p6345
I5325
sS'slower'
p6346
I2889
sS'trend'
p6347
I5862
sS'case-sensitive'
p6348
I3920
sS'port'
p6349
I1132
sS'substitute'
p6350
I1041
sS'64bit'
p6351
I5442
sS'categorizing'
p6352
I7570
sS'varchar/text'
p6353
I6409
sS'myssql'
p6354
I4345
sS'goes'
p6355
I5310
sS'reply'
p6356
I4361
sS'documentdb'
p6357
I6076
sS'cdbcriteria'
p6358
I7257
sS'multi-valued'
p6359
I6464
sS'group`'
p6360
I5085
sS'distincted'
p6361
I6684
sS'junction/link/bridge'
p6362
I7764
sS'datacolumn'
p6363
I855
sS'water'
p6364
I6082
sS'groups'
p6365
I468
sS'['
p6366
I2149
sS'groupy'
p6367
I4774
sS'leftjoin'
p6368
I6581
sS'preorder'
p6369
I4678
sS'reformatting'
p6370
I4767
sS'delimited'
p6371
I557
sS'overrides'
p6372
I5639
sS'doesn\xc2\xb4t'
p6373
I2213
sS'timings'
p6374
I5757
sS'delimiter'
p6375
I3374
sS'exams'
p6376
I7365
sS'weird'
p6377
I2780
sS'inserint'
p6378
I3908
sS'as400'
p6379
I3115
sS'subcategory'
p6380
I4782
sS'problematic'
p6381
I4445
sS'n-grams'
p6382
I5698
sS'v/s'
p6383
I7471
sS'modifying'
p6384
I3323
sS'bogs'
p6385
I2947
sS'1st'
p6386
I405
sS'downloads'
p6387
I7557
sS'non-standard'
p6388
I2379
sS'stated'
p6389
I2775
sS'sports'
p6390
I5109
sS'salesmen'
p6391
I6700
sS'handles'
p6392
I4742
sS'iphone'
p6393
I964
sS'memory'
p6394
I1199
sS'msg'
p6395
I5966
sS'australian'
p6396
I6807
sS'prev'
p6397
I7602
sS'today'
p6398
I1211
sS'sessions'
p6399
I2989
sS'outputs'
p6400
I548
sS'cashier'
p6401
I7625
sS'cased'
p6402
I5318
sS'employee'
p6403
I470
sS'cases'
p6404
I1058
sS'tabular'
p6405
I3519
sS"'drops"
p6406
I3296
sS'modified'
p6407
I1267
sS'longitude'
p6408
I2356
sS'winforms'
p6409
I3417
sS'.txt'
p6410
I3889
sS'modifier'
p6411
I4594
sS'streak'
p6412
I5094
sS'multi-filter'
p6413
I6445
sS'performer'
p6414
I3060
sS'corrupted'
p6415
I3411
sS'figure'
p6416
I993
sS'accepts'
p6417
I6781
sS'backslash'
p6418
I5570
sS'<pad>'
p6419
I0
sS'dropped'
p6420
I5165
sS'counting'
p6421
I740
sS'requirements'
p6422
I2518
sS'inheritance'
p6423
I2073
sS'filegroup'
p6424
I6936
sS'eloquent'
p6425
I4934
sS'1'
p6426
I301
sS'fourth'
p6427
I4346
sS'differents'
p6428
I5429
sS'plus'
p6429
I647
sS'crashes'
p6430
I6656
sS'information'
p6431
I127
sS'clone'
p6432
I1180
sS'pre-used'
p6433
I7078
sS'4th'
p6434
I1485
sS'classroom'
p6435
I4191
sS'branches'
p6436
I5493
sS'dynamical'
p6437
I5479
sS'1980-01-01'
p6438
I2199
sS'goal'
p6439
I7499
sS'123'
p6440
I6552
sS'representation'
p6441
I4790
sS'superscript'
p6442
I5864
sS'exclusive'
p6443
I2988
sS'dashes'
p6444
I6677
sS'recordset'
p6445
I2656
sS'sqlxml'
p6446
I7371
sS'midnight'
p6447
I1077
sS'primary_flag'
p6448
I5732
sS'case-when-then'
p6449
I5631
sS'blocked'
p6450
I3993
sS'array_a'
p6451
I5847
sS'apex'
p6452
I1770
sS'coordinates'
p6453
I1934
sS'luasql'
p6454
I7699
sS'platform'
p6455
I5781
sS'offers'
p6456
I4928
sS'triggers/getting'
p6457
I7549
sS'happened'
p6458
I1543
sS'postgres'
p6459
I197
sS'conversations'
p6460
I2731
sS'evolution'
p6461
I6707
sS'alpha-numeric'
p6462
I5453
sS'qualified'
p6463
I4909
sS'sqlcipher'
p6464
I5601
sS'permissions'
p6465
I2836
sS'execute'
p6466
I232
sS'equality'
p6467
I4099
sS'name'
p6468
I289
sS'fillter'
p6469
I5597
sS'possibilities'
p6470
I5316
sS'synchronize'
p6471
I7084
sS'by/having'
p6472
I3314
sS'weighted'
p6473
I1374
sS'most-recent'
p6474
I4372
sS'mysql5'
p6475
I5976
sS'populated'
p6476
I1698
sS'foreign_key'
p6477
I7434
sS'gaps'
p6478
I744
sS'mysql-'
p6479
I1426
sS'grouped-by'
p6480
I7028
sS'intended'
p6481
I1903
sS'ultimately'
p6482
I6501
sS'100k'
p6483
I3370
sS'profit'
p6484
I6059
sS'ejb'
p6485
I3567
sS'collate'
p6486
I1370
sS'emp_id'
p6487
I6625
sS'aliase'
p6488
I7035
sS'attended'
p6489
I4172
sS'theory'
p6490
I4520
sS'succesfully'
p6491
I3092
sS'group_concats'
p6492
I3180
sS'mysqli'
p6493
I4960
sS'turn'
p6494
I1323
sS'subgrouping'
p6495
I1809
sS'atomically'
p6496
I6390
sS'place'
p6497
I1397
sS'1005'
p6498
I6983
sS'view'
p6499
I374
sS'1000'
p6500
I1906
sS'origin'
p6501
I3863
sS'fetched'
p6502
I436
sS'revenue'
p6503
I1928
sS'coming'
p6504
I2408
sS'aes_decrypt'
p6505
I4666
sS'requirement'
p6506
I1091
sS'fetches'
p6507
I388
sS'simplified'
p6508
I3898
sS'acct'
p6509
I6839
sS'array'
p6510
I423
sS'millions'
p6511
I3393
sS'ctes'
p6512
I5648
sS'given'
p6513
I518
sS'necessarily'
p6514
I3513
sS'returns'
p6515
I589
sS'convention'
p6516
I4672
sS'white'
p6517
I4063
sS'gives'
p6518
I3047
sS'specifc'
p6519
I6191
sS'season'
p6520
I5451
sS'pragma'
p6521
I6791
sS'copy'
p6522
I183
sS'specify'
p6523
I362
sS'population'
p6524
I3143
sS'wide'
p6525
I3935
sS'alphanumerics'
p6526
I4757
sS'require'
p6527
I2695
sS'embeded'
p6528
I5448
sS'modelled'
p6529
I5922
sS'r'
p6530
I1474
sS"n'th"
p6531
I4013
sS'cards'
p6532
I6073
sS'outcome'
p6533
I3364
sS'truncating'
p6534
I2483
sS'pre'
p6535
I1794
sS'a/avg'
p6536
I3843
sS'pro'
p6537
I5562
sS'multi-id'
p6538
I6842
sS'ant'
p6539
I635
sS'rent'
p6540
I6874
sS'any'
p6541
I668
sS'conversion'
p6542
I1306
sS'maximum/minimum'
p6543
I7384
sS'ideas'
p6544
I2025
sS'1-many'
p6545
I4078
sS'sure'
p6546
I250
sS'multiple'
p6547
I85
sS'greenplum'
p6548
I3732
sS'falls'
p6549
I695
sS'visitors'
p6550
I5273
sS'donation'
p6551
I6068
sS'multiply'
p6552
I3469
sS'where-clause'
p6553
I4147
sS'time-based'
p6554
I5475
sS'discarding'
p6555
I5196
sS'occurances'
p6556
I1700
sS'later'
p6557
I1786
sS'playing'
p6558
I5896
sS'denormalizing'
p6559
I7608
sS'non-empty'
p6560
I4409
sS'quantity'
p6561
I2740
sS'nspredicate'
p6562
I4850
sS"'join"
p6563
I7516
sS'no-exist'
p6564
I3591
sS'recipe'
p6565
I5419
sS'timedate'
p6566
I5194
sS'datagrid'
p6567
I5102
sS'spaces'
p6568
I1314
sS'autonumber'
p6569
I3718
sS'select-from'
p6570
I3980
sS'dbms_metadata.get_ddl'
p6571
I5783
sS'multple'
p6572
I5699
sS'macros'
p6573
I6973
sS'non-working'
p6574
I6972
sS'state'
p6575
I862
sS'viarble'
p6576
I7206
sS'explicitly'
p6577
I3191
sS'invocation'
p6578
I5765
sS'dd-mm-yyyy'
p6579
I4538
sS'syntaxes'
p6580
I5459
sS'searches/queries'
p6581
I6705
sS'quartiles'
p6582
I1555
sS'concatenting'
p6583
I6836
sS'ssl'
p6584
I2172
sS'ssh'
p6585
I5584
sS'closure'
p6586
I7731
sS'mapper'
p6587
I7236
sS'regarding'
p6588
I2027
sS'orphans'
p6589
I2394
sS'postgresql-'
p6590
I3809
sS'mapped'
p6591
I4266
sS'registry'
p6592
I5515
sS'ignored'
p6593
I5314
sS'connectiong'
p6594
I4919
sS'containstable'
p6595
I5534
sS'violated'
p6596
I6447
sS'contigious'
p6597
I5256
sS'conditions/records'
p6598
I7025
sS'connections'
p6599
I1437
sS'ignores'
p6600
I4066
sS'hierachy'
p6601
I7748
sS'dependancy'
p6602
I4368
sS'fails'
p6603
I1807
sS'detect'
p6604
I91
sS'managing'
p6605
I1827
sS'subsequent'
p6606
I3626
sS'review'
p6607
I2565
sS'outside'
p6608
I3117
sS'arrival'
p6609
I4326
sS'multiplied'
p6610
I4167
sS'originated'
p6611
I6469
sS'overwriting'
p6612
I4667
sS'dmin'
p6613
I2015
sS'multiplies'
p6614
I6536
sS'multiplier'
p6615
I7686
sS'coma'
p6616
I4608
sS'cities'
p6617
I3400
sS'come'
p6618
I1998
sS'region'
p6619
I2427
sS'contract'
p6620
I3344
sS'datagridview'
p6621
I1096
sS'datafield'
p6622
I6481
sS'sp_msforeachtable'
p6623
I5994
sS'dbtimezone'
p6624
I4258
sS'filtering'
p6625
I824
sS'afterwards'
p6626
I4644
sS'color'
p6627
I4096
sS'period'
p6628
I540
sS'pop'
p6629
I5961
sS'sampling'
p6630
I2993
sS'60'
p6631
I1582
sS'64'
p6632
I3161
sS'coredata'
p6633
I2195
sS'poll'
p6634
I6434
sS'`group'
p6635
I1718
sS'500'
p6636
I4642
sS'engine'
p6637
I953
sS'direction'
p6638
I3906
sS'copy-paste'
p6639
I6848
sS'6i'
p6640
I5428
sS'irrelevant'
p6641
I4995
sS'refrencing'
p6642
I4201
sS'case'
p6643
I252
sS'myself'
p6644
I5049
sS'cast'
p6645
I1404
sS'irrespective'
p6646
I7453
sS'shops'
p6647
I4248
sS'interconnected'
p6648
I3024
sS'duplicating'
p6649
I2441
sS'discrepancy'
p6650
I7117
sS'parse'
p6651
I1494
sS'good'
p6652
I856
sS'converts'
p6653
I4817
sS'acess'
p6654
I4921
sS'author'
p6655
I4164
sS'alphabet'
p6656
I3536
sS'granted'
p6657
I5791
sS'heirarchical'
p6658
I6054
sS'locking'
p6659
I3692
sS'check'
p6660
I255
sS'shifts'
p6661
I5099
sS'html'
p6662
I1815
sS'transact-sql'
p6663
I726
sS'diffdate'
p6664
I5873
sS'reminder'
p6665
I3918
sS'events'
p6666
I495
sS'dbms_xmldom.domdocument'
p6667
I3850
sS'week'
p6668
I779
sS'disadvantages'
p6669
I4937
sS'nest'
p6670
I7122
sS'driver'
p6671
I2183
sS'driven'
p6672
I3877
sS'persons'
p6673
I3528
sS'statue'
p6674
I3380
sS'changing'
p6675
I846
sS't-sql'
p6676
I304
sS'ntext'
p6677
I4119
sS'relies'
p6678
I904
sS'threaded'
p6679
I3736
sS'minimize'
p6680
I3592
sS'without'
p6681
I369
sS'components'
p6682
I1586
sS'variadic'
p6683
I4570
sS'model'
p6684
I772
sS'binaries'
p6685
I7182
sS'sequenced'
p6686
I7416
sS'clob'
p6687
I634
sS'when'
p6688
I135
sS'actions'
p6689
I2277
sS'i/o'
p6690
I2837
sS'unclear'
p6691
I7663
sS'kill'
p6692
I4862
sS'unicode'
p6693
I2898
sS'mongoose'
p6694
I4628
sS'sampled'
p6695
I6492
sS'overlapped'
p6696
I4509
sS'holdlock'
p6697
I5980
sS'hint'
p6698
I3568
sS'5.5.8'
p6699
I7427
sS'seems'
p6700
I3266
sS'except'
p6701
I1069
sS'blog'
p6702
I689
sS'lets'
p6703
I6892
sS'blob'
p6704
I475
sS'samples'
p6705
I1268
sS'libreoffice'
p6706
I4482
sS're-creating'
p6707
I7547
sS'multi-row'
p6708
I4402
sS'styles'
p6709
I5285
sS'coulmns'
p6710
I6077
sS'kills'
p6711
I4457
sS'predetermined'
p6712
I6175
sS'scheduler'
p6713
I2045
sS'schedules'
p6714
I5006
sS'accepted'
p6715
I5947
sS'correcting'
p6716
I4974
sS'month/day/currentyear'
p6717
I6980
sS'silverlight'
p6718
I7759
sS'sanity'
p6719
I6898
sS'jfreechart'
p6720
I7322
sS'\\n'
p6721
I2541
sS'single-row'
p6722
I2824
sS'reduced'
p6723
I6178
sS'deduct'
p6724
I3910
sS'rpg'
p6725
I7069
sS'simulator'
p6726
I2858
sS'rowid'
p6727
I4289
sS'table'
p6728
I57
sS'subtypes'
p6729
I4152
sS'non-nullable'
p6730
I7309
sS'provided'
p6731
I451
sS'slice'
p6732
I5129
sS'literals'
p6733
I2789
sS'months_between'
p6734
I6406
sS'redis'
p6735
I7432
sS'slick'
p6736
I3216
sS'stops'
p6737
I5065
sS'provides'
p6738
I3242
sS'provider'
p6739
I4576
sS'convincing'
p6740
I5179
sS'multi-column'
p6741
I2082
sS'_'
p6742
I1519
sS'rearranging'
p6743
I2916
sS"'the"
p6744
I4338
sS'on'
p6745
I111
sS'identifer'
p6746
I6631
sS'ok'
p6747
I4209
sS'firebird'
p6748
I1816
sS'of'
p6749
I81
sS'mutually'
p6750
I2501
sS'auto-incrementing'
p6751
I2532
sS'stand'
p6752
I1901
sS'ihistorian'
p6753
I7673
sS'ot'
p6754
I6979
sS'os'
p6755
I3967
sS'or'
p6756
I253
sS'exept'
p6757
I6903
sS'dplyr'
p6758
I4676
sS'insert_date'
p6759
I4936
sS'communication'
p6760
I1614
sS'scores'
p6761
I4685
sS'annotate'
p6762
I1979
sS'accounts'
p6763
I3911
sS'determine'
p6764
I528
sS"'transform"
p6765
I2798
sS'normalised'
p6766
I5483
sS'strictly'
p6767
I2728
sS'there'
p6768
I447
sS'structuration'
p6769
I2615
sS'strict'
p6770
I5520
sS'scalaquery'
p6771
I7240
sS'datedifference'
p6772
I7573
sS'regard'
p6773
I7040
sS'non-unique'
p6774
I683
sS'amongst'
p6775
I7065
sS'deltas'
p6776
I5768
sS'longer'
p6777
I1642
sS'datasets'
p6778
I700
sS'applying'
p6779
I1654
sS'multiplicity'
p6780
I7746
sS'parrents'
p6781
I5176
sS'xlock'
p6782
I6998
sS"'2013-10-22"
p6783
I6913
sS'reusing'
p6784
I2125
sS'concating'
p6785
I6217
sS'totaling'
p6786
I3450
sS'sqoop'
p6787
I6914
sS'ssrs'
p6788
I701
sS'asynchronous'
p6789
I2713
sS'corresponding'
p6790
I421
sS'incorrect'
p6791
I2099
sS'4.7'
p6792
I4794
sS'4.1'
p6793
I3110
sS'4.0'
p6794
I3349
sS'4.2'
p6795
I3372
sS'narrowing'
p6796
I7480
sS'5'
p6797
I324
sS'deviation'
p6798
I5070
sS'requested'
p6799
I3405
sS'wirte'
p6800
I7585
sS'sub-subquery'
p6801
I5130
sS'separate'
p6802
I61
sS'symbol'
p6803
I730
sS'includes'
p6804
I2011
sS'bounded'
p6805
I7154
sS'n1'
p6806
I6779
sS'included'
p6807
I3721
sS'stocks'
p6808
I4659
sS'booked'
p6809
I5904
sS'calls'
p6810
I1600
sS'count/group'
p6811
I4342
sS'curve'
p6812
I5907
sS'4.x'
p6813
I5019
sS'00000'
p6814
I7171
sS'directory'
p6815
I2198
sS'horrible'
p6816
I6392
sS'all'
p6817
I137
sS'chinese'
p6818
I5291
sS'lack'
p6819
I5148
sS'dd/mm/yyyy'
p6820
I1480
sS'00:00'
p6821
I5445
sS'executing'
p6822
I1140
sS'scalar'
p6823
I1324
sS'generalize'
p6824
I7510
sS'follow'
p6825
I5032
sS'disk'
p6826
I4965
sS'synthetic'
p6827
I2873
sS'iterator'
p6828
I4146
sS'0000-00-00'
p6829
I7196
sS'n-fields'
p6830
I3563
sS'participants'
p6831
I6885
sS'thursday'
p6832
I6003
sS'removal'
p6833
I4585
sS'init'
p6834
I7403
sS'program'
p6835
I2962
sS'siblings'
p6836
I1974
sS'presentation'
p6837
I4969
sS'immutable'
p6838
I5500
sS'activities'
p6839
I7140
sS'belonging'
p6840
I2796
sS'far'
p6841
I5014
sS'sinlge'
p6842
I6364
sS'soley'
p6843
I4469
sS'ical'
p6844
I4784
sS'worst'
p6845
I6766
sS'reordering'
p6846
I1858
sS'awful'
p6847
I2530
sS'ticket'
p6848
I5332
sS'ticker'
p6849
I6966
sS'treating'
p6850
I2227
sS'longtext'
p6851
I1661
sS'list'
p6852
I366
sS'cascading'
p6853
I2900
sS'conflicted'
p6854
I5317
sS'vanilla'
p6855
I6204
sS'datetimeoffset'
p6856
I1662
sS'sum/average'
p6857
I4787
sS'ten'
p6858
I2643
sS'built-in'
p6859
I6653
sS'translating'
p6860
I617
sS'rate'
p6861
I3589
sS'design'
p6862
I187
sS'updatexml'
p6863
I6948
sS'functioning'
p6864
I6018
sS'listbox'
p6865
I4940
sS'will'
p6866
I216
sS'what'
p6867
I417
sS'imported'
p6868
I4278
sS'sub'
p6869
I261
sS'deeply'
p6870
I4043
sS'sum'
p6871
I271
sS'ticks'
p6872
I7107
sS'dayname'
p6873
I4885
sS'overload'
p6874
I6510
sS'version'
p6875
I465
sS'intersect'
p6876
I2206
sS'tags'
p6877
I1981
sS'behaviour'
p6878
I2682
sS'hashtable'
p6879
I4329
sS'unitid'
p6880
I7758
sS'directions'
p6881
I3698
sS'start/end'
p6882
I5214
sS'increments'
p6883
I574
sS'flase'
p6884
I3496
sS'delemiter'
p6885
I4663
sS'mysql_query'
p6886
I4226
sS'allows'
p6887
I3042
sS'viewflipper'
p6888
I6065
sS'resultsets'
p6889
I550
sS'options'
p6890
I1539
sS'conditioning'
p6891
I6287
sS'recursion'
p6892
I2500
sS'one-many'
p6893
I1039
sS'titandb'
p6894
I1332
sS'texts'
p6895
I4899
sS'semester'
p6896
I7412
sS'1900'
p6897
I6015
sS"'group"
p6898
I16
sS'proceed'
p6899
I4211
sS"'yes"
p6900
I6063
sS'minor'
p6901
I3713
sS'flat'
p6902
I1222
sS'knows'
p6903
I7332
sS'grabbing'
p6904
I1319
sS'operators'
p6905
I3297
sS'owners'
p6906
I6274
sS'flag'
p6907
I1623
sS'basically'
p6908
I5271
sS'known'
p6909
I920
sS'subpartition'
p6910
I5752
sS'orderby'
p6911
I2726
sS'deadlocks'
p6912
I3957
sS'subsonic'
p6913
I6993
sS'equation'
p6914
I5553
sS'for-loop'
p6915
I4968
sS'v'
p6916
I5544
sS"'union"
p6917
I4222
sS'crosstabs'
p6918
I6908
sS'omit'
p6919
I2153
sS'challenging'
p6920
I3256
sS'prompting'
p6921
I6078
sS'5.0'
p6922
I5413
sS'5.1'
p6923
I4975
sS'5.2'
p6924
I5267
sS'recursive'
p6925
I321
sS'5.6'
p6926
I579
sS'rather'
p6927
I2608
sS'breaking'
p6928
I1114
sS'cleansing'
p6929
I4050
sS'storedprocedure'
p6930
I3124
sS'speeding'
p6931
I5899
sS"'select"
p6932
I4601
sS'okay'
p6933
I7629
sS'firstname'
p6934
I3430
sS'algebra'
p6935
I4270
sS'emulate'
p6936
I2681
sS'where/conditions'
p6937
I7297
sS'extbase'
p6938
I6935
sS'reflect'
p6939
I7595
sS'catalog'
p6940
I6826
sS'disable'
p6941
I2383
sS'capitalize'
p6942
I4494
sS'timeslice/windowing'
p6943
I6756
sS'short'
p6944
I1793
sS'hstore'
p6945
I1838
sS'departure'
p6946
I5141
sS'friendid'
p6947
I4154
sS'height'
p6948
I2895
sS'android/sqlite'
p6949
I7505
sS'subselects'
p6950
I1752
sS'specifying'
p6951
I1649
sS'turnover'
p6952
I7720
sS'order+limit'
p6953
I5131
sS're-insert'
p6954
I7402
sS'major'
p6955
I6160
sS'disabled'
p6956
I4913
sS'isnt'
p6957
I3648
sS'1.99'
p6958
I7545
sS'items/tuples'
p6959
I4220
sS'developer'
p6960
I1487
sS'style'
p6961
I2273
sS'clashes'
p6962
I3895
sS'parts'
p6963
I2717
sS'mm/dd/yyy'
p6964
I1612
sS'soccer'
p6965
I6107
sS'might'
p6966
I4144
sS'alter'
p6967
I1509
sS'somebody'
p6968
I393
sS'multitable'
p6969
I6360
sS'framework'
p6970
I2036
sS'accumulate'
p6971
I6397
sS'bigger'
p6972
I4880
sS'gets'
p6973
I994
sS'refresh'
p6974
I2911
sS'inequality'
p6975
I2134
sS'innodb'
p6976
I4755
sS'self-relationship'
p6977
I6562
sS'done'
p6978
I278
sS'residing'
p6979
I6740
sS'friendship'
p6980
I4142
sS'formulate'
p6981
I4645
sS'generation'
p6982
I1360
sS'expect'
p6983
I5878
sS'loops'
p6984
I1354
sS'parenttablerecord'
p6985
I7193
sS'discrete'
p6986
I5708
sS'4pm'
p6987
I6832
sS'parametrizing'
p6988
I4914
sS'1-1'
p6989
I5644
sS'shipment'
p6990
I4962
sS'master/child'
p6991
I4649
sS'unioning'
p6992
I5080
sS'data_type'
p6993
I6173
sS'friday'
p6994
I4196
sS'organising'
p6995
I7387
sS'hoursofoperation'
p6996
I1703
sS'product_id'
p6997
I7062
sS'thread'
p6998
I3310
sS'e.g'
p6999
I1736
sS'highest/lowest'
p7000
I5855
sS'mass-coalescing'
p7001
I7535
sS'throws'
p7002
I3680
sS'feed'
p7003
I989
sS'sql-2'
p7004
I4808
sS'relate'
p7005
I1325
sS'linking'
p7006
I1232
sS'statisfies'
p7007
I7653
sS'construct'
p7008
I1368
sS'blank'
p7009
I1299
sS'says'
p7010
I2983
sS'passes'
p7011
I3520
sS'story'
p7012
I6089
sS'temperature'
p7013
I5513
sS'script'
p7014
I87
sS'leading'
p7015
I1936
sS'interact'
p7016
I5636
sS'gpa'
p7017
I4707
sS'hangs'
p7018
I2568
sS'passed'
p7019
I2735
sS'store'
p7020
I513
sS'gps'
p7021
I2261
sS'8601'
p7022
I4315
sS'adding/combining'
p7023
I6376
sS'calculations'
p7024
I1518
sS'hotel'
p7025
I3789
sS'wm-concat'
p7026
I4547
sS'pipelined'
p7027
I6477
sS'kind'
p7028
I1924
sS"'long"
p7029
I7389
sS'double'
p7030
I699
sS'architect'
p7031
I7646
sS'restful'
p7032
I7305
sS'cleaner'
p7033
I3141
sS'w/parameter'
p7034
I7044
sS'inputstring'
p7035
I3855
sS'bitwise'
p7036
I5040
sS'tabels'
p7037
I3579
sS'alike'
p7038
I3949
sS'hexagonal'
p7039
I4992
sS'transactional'
p7040
I3507
sS'datetimes'
p7041
I3096
sS'finding'
p7042
I515
sS'populous'
p7043
I3210
sS'findind'
p7044
I6657
sS'jsf'
p7045
I6467
sS'added'
p7046
I2397
sS'populate'
p7047
I139
sS'exec'
p7048
I2883
sS'customize'
p7049
I2566
sS'data.frame'
p7050
I4352
sS'reach'
p7051
I497
sS'toxi'
p7052
I5108
sS'75'
p7053
I4815
sS'jsp'
p7054
I5052
sS'72'
p7055
I6034
sS'70'
p7056
I736
sS'nothing'
p7057
I302
sS'seasons'
p7058
I4618
sS'crosstab'
p7059
I2578
sS'windows'
p7060
I1910
sS'datetime2'
p7061
I1085
sS'caching'
p7062
I1256
sS'entieies'
p7063
I7180
sS'cdc'
p7064
I5152
sS'all_indexes'
p7065
I6621
sS'stumped'
p7066
I5481
sS'font'
p7067
I6046
sS'typo3'
p7068
I5188
sS'distinct/group'
p7069
I5608
sS'simulating'
p7070
I2454
sS'ies'
p7071
I7344
sS'freetext'
p7072
I5422
sS'storedproc'
p7073
I551
sS'charcters'
p7074
I5047
sS'his'
p7075
I2745
sS'hit'
p7076
I1937
sS'gains'
p7077
I6987
sS'invoke'
p7078
I6158
sS'compiled'
p7079
I3679
sS'obtain'
p7080
I1045
sS'fastest'
p7081
I2205
sS'shared'
p7082
I937
sS'aaa'
p7083
I1492
sS'him'
p7084
I292
sS'compiler'
p7085
I7611
sS'vaules'
p7086
I6258
sS'max_date'
p7087
I7355
sS'activity'
p7088
I900
sS'wrote'
p7089
I5653
sS'self-joins'
p7090
I2935
sS'dump'
p7091
I313
sS'prodedure'
p7092
I6814
sS'are'
p7093
I641
sS'2.2'
p7094
I6468
sS'2.1'
p7095
I6994
sS'2.0'
p7096
I1550
sS'2.5'
p7097
I7464
sS'12500'
p7098
I6304
sS'upvotes'
p7099
I7275
sS'formatted'
p7100
I2405
sS'time-format'
p7101
I6872
sS'libraries'
p7102
I363
sS'unions'
p7103
I3031
sS'various'
p7104
I486
sS'user_roles'
p7105
I5841
sS'consecutive'
p7106
I35
sS'formatter'
p7107
I6718
sS'numerous'
p7108
I2248
sS'cancelling'
p7109
I5724
sS'latin'
p7110
I4443
sS'recently'
p7111
I4826
sS'creating'
p7112
I370
sS'sold'
p7113
I3045
sS'outfile'
p7114
I5336
sS'rows-based'
p7115
I5881
sS'solr'
p7116
I4331
sS'relying'
p7117
I3712
sS'c'
p7118
I1570
sS'nullability'
p7119
I7119
sS'mimimum'
p7120
I6915
sS'win/loss'
p7121
I4285
sS'8am'
p7122
I2047
sS'context'
p7123
I2028
sS'finds'
p7124
I3764
sS'arbitrarily'
p7125
I5666
sS'0,1'
p7126
I4656
sS'improper'
p7127
I7160
sS'slots'
p7128
I7021
sS'next_day'
p7129
I6927
sS'complication'
p7130
I4804
sS'user_id'
p7131
I1094
sS'300-21-2'
p7132
I74
sS'unflatten'
p7133
I5714
sS'due'
p7134
I2284
sS'appears'
p7135
I973
sS'pc'
p7136
I5997
sS'pg'
p7137
I1445
sS'txt'
p7138
I5146
sS'pk'
p7139
I1014
sS'pl'
p7140
I322
sS'pm'
p7141
I3320
sS'todate'
p7142
I6438
sS'transferring'
p7143
I654
sS'precision'
p7144
I2603
sS'dql'
p7145
I1918
sS'demand'
p7146
I4615
sS'managedquery'
p7147
I4449
sS'indefinitely'
p7148
I5701
sS'mssqlserver'
p7149
I3724
sS'batch'
p7150
I1166
sS'evaluated'
p7151
I878
sS'tweaking'
p7152
I7744
sS'behavior'
p7153
I352
sS'headings'
p7154
I3167
sS'concurrently'
p7155
I1134
sS'daterange'
p7156
I4849
sS'rid'
p7157
I1635
sS'time-to-build'
p7158
I7762
sS'lengthy'
p7159
I3742
sS'trial'
p7160
I7063
sS'lengths'
p7161
I3538
sS'hadoop'
p7162
I6609
sS"'others"
p7163
I3874
sS'deletion'
p7164
I4079
sS'sqlite3'
p7165
I1683
sS'has-many-through'
p7166
I4580
sS'advise'
p7167
I1833
sS'prerequisite'
p7168
I6710
sS'higher'
p7169
I1245
sS'\xe2\x80\x8b\xe2\x80\x8bof'
p7170
I2009
sS'holidays'
p7171
I1057
sS'moving'
p7172
I914
sS'wheres'
p7173
I6355
sS'spliting'
p7174
I5924
sS'lower'
p7175
I1340
sS'navigation'
p7176
I5872
sS'analysis'
p7177
I1874
sS'edge'
p7178
I1717
sS'find/replace'
p7179
I4866
sS'user-item'
p7180
I2349
sS'precedence'
p7181
I2674
sS'questionn'
p7182
I6540
sS'birthday'
p7183
I1631
sS'intervals'
p7184
I1727
sS'questions'
p7185
I1538
sS'continent'
p7186
I5121
sS'tables'
p7187
I114
sS'loading'
p7188
I2286
sS'workers'
p7189
I4350
sS'exclusively'
p7190
I1165
sS'insert/update'
p7191
I2808
sS'internal'
p7192
I1389
sS'tabled'
p7193
I7511
sS'tweak'
p7194
I5566
sS'finder'
p7195
I4966
sS'associations'
p7196
I2112
sS'customers'
p7197
I1348
sS'vendor'
p7198
I5425
sS'send_dbmail'
p7199
I7760
sS'unlimited'
p7200
I5517
sS'aggregation'
p7201
I888
sS'integer'
p7202
I542
sS'table2'
p7203
I1464
sS'table3'
p7204
I5461
sS'modifications'
p7205
I4367
sS'rotate'
p7206
I1909
sS'year/month'
p7207
I1529
sS'systematically'
p7208
I5288
sS'capitals'
p7209
I3825
sS'separately'
p7210
I4505
sS'collect'
p7211
I1104
sS'variant'
p7212
I7218
sS'table-'
p7213
I4744
sS'outer-join'
p7214
I3594
sS'3.6'
p7215
I4796
sS'3.2'
p7216
I7712
sS'3.0'
p7217
I1119
sS'ebean'
p7218
I4759
sS'retry'
p7219
I5819
sS'seller'
p7220
I5313
sS'tbl2'
p7221
I2270
sS'tbl1'
p7222
I2269
sS'fragments'
p7223
I5355
sS'prod'
p7224
I5556
sS'proc'
p7225
I2115
sS'prob'
p7226
I4264
sS'informatica'
p7227
I5579
sS'lose'
p7228
I6321
sS'percentile'
p7229
I1868
sS'maximium'
p7230
I4381
sS'`where'
p7231
I2950
sS'roundup'
p7232
I6725
sS'pipeline'
p7233
I4661
sS'standalone'
p7234
I2827
sS'completing'
p7235
I3832
sS'firing'
p7236
I3383
sS'symfony2'
p7237
I3620
sS'range'
p7238
I832
sS'dialog'
p7239
I2110
sS'varbinary'
p7240
I3909
sS'significant'
p7241
I6265
sS'statment'
p7242
I441
sS'rows'
p7243
I36
sS'question'
p7244
I592
sS'fast'
p7245
I1812
sS'vendors'
p7246
I6790
sS'unix_timestamp'
p7247
I6691
sS'analyze'
p7248
I5711
sS'sections'
p7249
I4756
sS'files'
p7250
I315
sS'time-stamps'
p7251
I5000
sS'kb'
p7252
I1651
sS'groupwise'
p7253
I2443
sS'criteria'
p7254
I243
sS'repeatedly'
p7255
I3069
sS'delta'
p7256
I3756
sS'groupings'
p7257
I3089
sS'partitioning'
p7258
I4973
sS'consist'
p7259
I7212
sS'fulfilling'
p7260
I5812
sS'caller'
p7261
I7711
sS'capitalized'
p7262
I7251
sS'`multiple`'
p7263
I6339
sS'if-then-else'
p7264
I7372
sS'reorder'
p7265
I4388
sS'highlight'
p7266
I1702
sS'z'
p7267
I1190
sS'called'
p7268
I913
sS'associated'
p7269
I320
sS'yyyymmdd'
p7270
I2281
sS'user1'
p7271
I6446
sS'cover'
p7272
I2548
sS'parsing/processing'
p7273
I7186
sS'quantification'
p7274
I5221
sS'warning'
p7275
I4911
sS'dataadapter'
p7276
I5759
sS'dbgrid'
p7277
I237
sS'malicious'
p7278
I7159
sS'multipliers'
p7279
I4773
sS'grouped'
p7280
I867
sS'one-on-one'
p7281
I3951
sS'income'
p7282
I2226
sS'nice'
p7283
I5568
sS'generates'
p7284
I5066
sS'problems'
p7285
I1705
sS'calcualte'
p7286
I7060
sS'meaning'
p7287
I2770
sS'allowing'
p7288
I2737
sS'query.sql'
p7289
I6773
sS'un-matching'
p7290
I7773
sS'diffent'
p7291
I2767
sS'vice'
p7292
I2831
sS"'number"
p7293
I5514
sS'departments'
p7294
I5852
sS'weights'
p7295
I5486
sS'ternary'
p7296
I584
sS'scroll'
p7297
I2119
sS'once'
p7298
I1801
sS'sqlserver'
p7299
I1198
sS'endate'
p7300
I5161
sS'tbl1.col'
p7301
I6372
sS'edt'
p7302
I5417
sS'contributions'
p7303
I2497
sS'issues'
p7304
I1353
sS'size/length'
p7305
I5560
sS'deterministic'
p7306
I5021
sS'languages'
p7307
I1483
sS'_question'
p7308
I7647
sS'stable'
p7309
I1220
sS'include'
p7310
I671
sS'dramatically'
p7311
I6963
sS'overlaps'
p7312
I4779
sS'sqls'
p7313
I7146
sS'spool'
p7314
I1101
sS'transactionscope'
p7315
I4498
sS'petapoco'
p7316
I5539
sS'incoherent'
p7317
I3772
sS'resequence'
p7318
I6687
sS'notes'
p7319
I4032
sS'refactored'
p7320
I5298
sS'deals'
p7321
I4194
sS'aggregrates'
p7322
I6547
sS'optimalization'
p7323
I7474
sS'entrys'
p7324
I4935
sS'smaller'
p7325
I2875
sS'frequency/distribution'
p7326
I3040
sS':abstract'
p7327
I5189
sS'manipulating'
p7328
I3017
sS'hourly'
p7329
I836
sS'blobs'
p7330
I3608
sS'subselect'
p7331
I1667
sS'acronym'
p7332
I7567
sS'capital'
p7333
I4724
sS'incidents'
p7334
I6165
sS'chose'
p7335
I1124
sS'degree'
p7336
I4537
sS"'index"
p7337
I7769
sS'youngest'
p7338
I4098
sS'desired'
p7339
I552
sS'separation'
p7340
I1079
sS"'ignore_table"
p7341
I7458
sS'sql-ex.ru'
p7342
I4892
sS'larger'
p7343
I2037
sS'leaving'
p7344
I3800
sS'initials'
p7345
I7702
sS'superuser'
p7346
I4750
sS'forbid'
p7347
I5758
sS'context-aware'
p7348
I6724
sS'app'
p7349
I787
sS'api'
p7350
I2496
sS'summation'
p7351
I3795
sS'apply'
p7352
I877
sS'redo'
p7353
I4717
sS'subquerying'
p7354
I6187
sS'use'
p7355
I164
sS'fee'
p7356
I178
sS'from'
p7357
I72
sS'stream'
p7358
I614
sS'consumption'
p7359
I4942
sS'fron'
p7360
I3004
sS'\xef\xbf\xbd'
p7361
I4569
sS'few'
p7362
I2381
sS'expanding'
p7363
I1576
sS'timetable'
p7364
I1186
sS'.bat'
p7365
I6652
sS'possession'
p7366
I5350
sS'oracle/plsql'
p7367
I3202
sS'editable'
p7368
I1126
sS'fieldnames'
p7369
I1279
sS'php/mysql'
p7370
I1845
sS'detects'
p7371
I961
sS'topic'
p7372
I4895
sS'wtih'
p7373
I7442
sS'tableview'
p7374
I5008
sS'anywhere'
p7375
I1628
sS'non-numerical'
p7376
I5225
sS'performed'
p7377
I3103
sS'bulkcopy'
p7378
I1993
sS'calculation'
p7379
I734
sS'0..1'
p7380
I4693
sS'dcount'
p7381
I4548
sS'0.5'
p7382
I6553
sS'tag'
p7383
I952
sS'something'
p7384
I461
sS'tab'
p7385
I222
sS'serial'
p7386
I806
sS'sip'
p7387
I5302
sS'possibile'
p7388
I6744
sS'releations'
p7389
I7596
sS'subdirectory'
p7390
I4719
sS'six'
p7391
I1573
sS'occuring'
p7392
I4318
sS'sid'
p7393
I3859
sS'instead'
p7394
I850
sS'0713'
p7395
I2274
sS'pre-defined'
p7396
I6608
sS'timeframes'
p7397
I5512
sS'ltrim'
p7398
I5813
sS'attend'
p7399
I6528
sS'msdb'
p7400
I7116
sS'10m'
p7401
I7228
sS'fasion'
p7402
I3086
sS'specfic'
p7403
I4720
sS'stamped'
p7404
I6938
sS'ouput'
p7405
I3776
sS'self-referencing'
p7406
I4392
sS'max/min'
p7407
I3533
sS'whilst'
p7408
I5767
sS'looks'
p7409
I4308
sS'unchecked'
p7410
I3503
sS'earlier'
p7411
I2840
sS'horizontally'
p7412
I2401
sS'condtion'
p7413
I6049
sS'sub-categories'
p7414
I5886
sS'bys'
p7415
I4198
sS"'case"
p7416
I3052
sS'precision/scale'
p7417
I7224
sS'h2'
p7418
I2332
sS'permanent'
p7419
I6711
sS'w.r.t'
p7420
I2869
sS'choose'
p7421
I1294
sS'inconsistencies'
p7422
I6128
sS'clusters'
p7423
I6084
sS'hyphons'
p7424
I5149
sS'holiday'
p7425
I3786
sS'defining'
p7426
I3901
sS'pending'
p7427
I3343
sS'flex'
p7428
I5389
sS'violating'
p7429
I4999
sS'crash'
p7430
I2475
sS'material'
p7431
I2369
sS'indexing'
p7432
I2790
sS"'value"
p7433
I6947
sS'articles'
p7434
I1742
sS'monthwise'
p7435
I6854
sS'trac'
p7436
I4912
sS'edit'
p7437
I605
sS'.net'
p7438
I2375
sS'datecreated'
p7439
I5331
sS'trimmed'
p7440
I3916
sS'custom-per-user'
p7441
I6061
sS'fiddle'
p7442
I7310
sS'order-by'
p7443
I4967
sS'bills'
p7444
I1656
sS'studios'
p7445
I7163
sS'ms_access'
p7446
I3214
sS'bytes'
p7447
I3026
sS'ascending/descending'
p7448
I6911
sS'related'
p7449
I704
sS'pecentage'
p7450
I5958
sS'89'
p7451
I5393
sS'doubled'
p7452
I4502
sS'our'
p7453
I3556
sS'80'
p7454
I4088
sS'out'
p7455
I442
sS'category'
p7456
I327
sS'n-m'
p7457
I7447
sS'human-readable'
p7458
I5377
sS'loannumber'
p7459
I4758
sS'performs'
p7460
I4835
sS'exporting'
p7461
I5647
sS'plural'
p7462
I7741
sS'8i'
p7463
I5948
sS'dictionary'
p7464
I2391
sS'implode'
p7465
I5123
sS'conflicts'
p7466
I2872
sS'phrases'
p7467
I6042
sS'feasible'
p7468
I6426
sS'conversation'
p7469
I2106
sS'produce'
p7470
I3337
sS'crm'
p7471
I6483
sS'exam'
p7472
I5075
sS'squeryl'
p7473
I2982
sS'echo'
p7474
I3061
sS'distincts'
p7475
I4664
sS'n-th'
p7476
I6810
sS'straight'
p7477
I5857
sS'destinations'
p7478
I5092
sS'weka'
p7479
I7439
sS'unknown'
p7480
I1139
sS'sep'
p7481
I7267
sS'accent'
p7482
I6502
sS'annotation'
p7483
I7058
sS'priority'
p7484
I455
sS'their'
p7485
I838
sS'1500'
p7486
I1209
sS"'strings"
p7487
I2259
sS"'by"
p7488
I5454
sS'begin/end'
p7489
I4230
sS'shell'
p7490
I144
sS'tuple'
p7491
I2922
sS'reversed'
p7492
I3561
sS'sys.objects'
p7493
I825
sS'regards'
p7494
I3658
sS'renumber'
p7495
I6537
sS'simulate'
p7496
I5180
sS'july'
p7497
I2251
sS'isolation'
p7498
I2118
sS'limiting'
p7499
I1250
sS'patients'
p7500
I4637
sS'sed'
p7501
I6040
sS'vat'
p7502
I6520
sS'prepended'
p7503
I6958
sS'occurences'
p7504
I1429
sS'1.4'
p7505
I4736
sS'1.6'
p7506
I2264
sS'1.0'
p7507
I4708
sS'1.2'
p7508
I3983
sS'queryset'
p7509
I2813
sS'imdb'
p7510
I3059
sS'occurness'
p7511
I1811
sS'intersecting'
p7512
I1229
sS'pupils'
p7513
I5374
sS'date/datetime'
p7514
I3842
sS'contact'
p7515
I3939
sS'dublicate'
p7516
I1658
sS'analog'
p7517
I6088
sS'which'
p7518
I481
sS'subtable'
p7519
I5893
sS'='
p7520
I1210
sS'who'
p7521
I1176
sS'single-group'
p7522
I4394
sS'class'
p7523
I3516
sS'deny'
p7524
I2907
sS'refreshing'
p7525
I2108
sS'neighboring'
p7526
I3890
sS'archiving'
p7527
I3925
sS'.005'
p7528
I5218
sS'pipe'
p7529
I4785
sS'_id'
p7530
I6591
sS'subtracting'
p7531
I1468
sS'q1'
p7532
I5359
sS'unexpired'
p7533
I4805
sS'filmed'
p7534
I3765
sS'mumbai'
p7535
I5982
sS'cache'
p7536
I2317
sS'pickup'
p7537
I4848
sS'sqlplus'
p7538
I142
sS'combo'
p7539
I5287
sS'truncation'
p7540
I1031
sS'thousands'
p7541
I2305
sS'cube'
p7542
I1109
sS'aggreate'
p7543
I4662
sS'999'
p7544
I2601
sS'if/then'
p7545
I3158
sS'ones'
p7546
I1829
sS'words'
p7547
I715
sS'lossless'
p7548
I5718
sS'queried'
p7549
I2164
sS'arithmetics'
p7550
I6930
sS'qt'
p7551
I3543
sS'ended'
p7552
I1783
sS'differential'
p7553
I5023
sS'qa'
p7554
I6251
sS'queries'
p7555
I158
sS'ql'
p7556
I5013
sS'qn'
p7557
I3293
sS'conversions'
p7558
I6762
sS'available'
p7559
I537
sS'workbench'
p7560
I4065
sS'modulo'
p7561
I3054
sS'acquired'
p7562
I7536
sS'module'
p7563
I4316
sS'multipart'
p7564
I5035
sS'ebs'
p7565
I6999
sS'puts'
p7566
I7165
sS'alternate/default'
p7567
I6830
sS'closed'
p7568
I2237
sS'foreign-key'
p7569
I6523
sS'bought'
p7570
I721
sS'db_id'
p7571
I7628
sS'ability'
p7572
I3647
sS'opening'
p7573
I1053
sS"'val1"
p7574
I7727
sS'beverages'
p7575
I5106
sS'job'
p7576
I1669
sS'convertion'
p7577
I7093
sS'oracle-sql-table'
p7578
I6659
sS'doesnot'
p7579
I5163
sS'swift'
p7580
I4599
sS'conversion-'
p7581
I4875
sS'non-contiguous'
p7582
I561
sS'commands'
p7583
I2143
sS'mediumint'
p7584
I4234
sS'orgenize'
p7585
I7671
sS'coloumn'
p7586
I2095
sS'april'
p7587
I5233
sS'grain'
p7588
I5239
sS'atleast'
p7589
I1598
sS'safely'
p7590
I5120
sS'mutating'
p7591
I3366
sS'delimeted'
p7592
I1218
sS'sepparated'
p7593
I6311
sS'hyphen'
p7594
I3395
sS'theese'
p7595
I6761
sS'environments'
p7596
I3292
sS'delimeter'
p7597
I5599
sS'sequences'
p7598
I2537
sS'seperator'
p7599
I5643
sS'respect'
p7600
I482
sS'occured'
p7601
I1608
sS'decent'
p7602
I7604
sS'charts'
p7603
I4203
sS'validating'
p7604
I1204
sS'literal'
p7605
I1764
sS'table1.date'
p7606
I1416
sS'resultant'
p7607
I7068
sS"'horizontalize"
p7608
I7373
sS'sufficient'
p7609
I7185
sS'ensuring'
p7610
I6369
sS'improved'
p7611
I4477
sS'repetition'
p7612
I3223
sS'present'
p7613
I807
sS'abandoned'
p7614
I5469
sS'subsets'
p7615
I1584
sS'align'
p7616
I4296
sS'choices'
p7617
I3332
sS'cursor'
p7618
I1572
sS'multivalue'
p7619
I5125
sS'wild'
p7620
I4546
sS'~'
p7621
I4822
sS'rename'
p7622
I2242
sS'layer'
p7623
I2862
sS'bigint'
p7624
I5661
sS'linq-to-entities'
p7625
I6919
sS'dual'
p7626
I572
sS'avg'
p7627
I865
sS'qualifier'
p7628
I4598
sS'perhaps'
p7629
I6233
sS'privileges'
p7630
I2970
sS'cross'
p7631
I221
sS'enumeration'
p7632
I1610
sS'member'
p7633
I1743
sS'unity'
p7634
I6388
sS'non-matching'
p7635
I1403
sS'largest'
p7636
I1236
sS'units'
p7637
I1589
sS'fks'
p7638
I5054
sS'incl'
p7639
I5133
sS'difficult'
p7640
I3694
sS'slave'
p7641
I5867
sS'automation'
p7642
I5485
sS'openoffice'
p7643
I4055
sS'student'
p7644
I149
sS'correspondent'
p7645
I5338
sS'storedprocvariable'
p7646
I6405
sS'certian'
p7647
I7204
sS'mysql/sql'
p7648
I5118
sS'english'
p7649
I3523
sS'jpql'
p7650
I1678
sS'excessive'
p7651
I7481
sS'camel'
p7652
I3311
sS'last_insert_rowid'
p7653
I2960
sS'yesterdays'
p7654
I3498
sS'tcp'
p7655
I2247
sS'mnesia'
p7656
I1888
sS'tcl'
p7657
I7479
sS'sku'
p7658
I676
sS'superset'
p7659
I4180
sS'console'
p7660
I6302
sS'supply'
p7661
I6125
sS'unsigned'
p7662
I1944
sS'postregsql'
p7663
I1329
sS'other'
p7664
I186
sS'groupping'
p7665
I7749
sS'serialnum'
p7666
I5972
sS'usage'
p7667
I2884
sS'comma-delimeted'
p7668
I6211
sS'acted'
p7669
I6270
sS'identical'
p7670
I185
sS'term'
p7671
I3681
sS'interrogation'
p7672
I7261
sS'non-null'
p7673
I972
sS'know'
p7674
I1328
sS'press'
p7675
I5883
sS'redesign'
p7676
I6543
sS'variants'
p7677
I2169
sS'loses'
p7678
I5319
sS'hosts'
p7679
I7586
sS'ora-04091'
p7680
I6062
sS'exceed'
p7681
I1748
sS'because'
p7682
I2659
sS'create_date'
p7683
I6754
sS'sys_extract_utc'
p7684
I7540
sS'sequence'
p7685
I510
sS'postion'
p7686
I4325
sS'searching'
p7687
I1419
sS'kdb'
p7688
I6795
sS'114'
p7689
I5704
sS'growth'
p7690
I2949
sS'export'
p7691
I1385
sS'113'
p7692
I3676
sS'leaf'
p7693
I2253
sS'lead'
p7694
I1123
sS'autoincrement'
p7695
I2040
sS'manipulations'
p7696
I4688
sS'leap'
p7697
I2630
sS'leader'
p7698
I5697
sS'locate'
p7699
I1427
sS'11g'
p7700
I84
sS'oracle/mysql'
p7701
I7350
sS'order_id'
p7702
I5929
sS'collations'
p7703
I6784
sS'enum'
p7704
I3415
sS'consuming'
p7705
I6399
sS'paste'
p7706
I3213
sS'slug'
p7707
I5569
sS'colume'
p7708
I5236
sS'extension'
p7709
I2163
sS'getting'
p7710
I389
sS'column'
p7711
I46
sS'auto-generated'
p7712
I6214
sS'shipping'
p7713
I3844
sS're-index'
p7714
I3813
sS'dependency'
p7715
I2257
sS'colums'
p7716
I931
sS'datevalue'
p7717
I6416
sS'constructor'
p7718
I2893
sS'clojure'
p7719
I5807
sS'individually'
p7720
I2886
sS'own'
p7721
I588
sS'lenght'
p7722
I5168
sS'wamp'
p7723
I6512
sS'weather'
p7724
I251
sS'registration'
p7725
I6229
sS'negate'
p7726
I3028
sS'collumns'
p7727
I4364
sS'consecutively'
p7728
I3046
sS'significantly'
p7729
I7055
sS'van'
p7730
I3491
sS'transfer'
p7731
I1708
sS'*'
p7732
I174
sS'apps'
p7733
I5449
sS'overtime'
p7734
I4212
sS'var'
p7735
I4016
sS'information_schema'
p7736
I1896
sS'triggered'
p7737
I3685
sS'volume'
p7738
I5007
sS'automated'
p7739
I4647
sS'iterates'
p7740
I4632
sS'made'
p7741
I1879
sS'temp'
p7742
I56
sS'whether'
p7743
I1569
sS'record'
p7744
I254
sS'below'
p7745
I2062
sS'catching'
p7746
I3445
sS'cake'
p7747
I6685
sS'non-existent'
p7748
I5879
sS'mmddyyyy'
p7749
I3335
sS"'create"
p7750
I5010
sS'subas'
p7751
I5935
sS'trailing'
p7752
I1313
sS'happen'
p7753
I5502
sS'mutual'
p7754
I298
sS'improving'
p7755
I1657
sS'percent'
p7756
I1557
sS'book'
p7757
I1729
sS'bool'
p7758
I1432
sS'branch'
p7759
I3270
sS'percents'
p7760
I6943
sS'clicks'
p7761
I1293
sS'state/attribute'
p7762
I3280
sS'junk'
p7763
I6169
sS'kinds'
p7764
I6166
sS'kinda'
p7765
I6245
sS'regexp_*'
p7766
I7504
sS'priced'
p7767
I5743
sS'upwards'
p7768
I7229
sS'quicker'
p7769
I5526
sS'ranks'
p7770
I3540
sS'inserted/updated'
p7771
I6480
sS'intentionally'
p7772
I7714
sS'volumes'
p7773
I3615
sS'update/change'
p7774
I1478
sS'expands'
p7775
I2971
s.